(dp1
S'output'
p2
S"<type 'exceptions.NameError'> name 'lorem' is not defined"
p3
sS'layer'
p4
S'C:\\Users\\Zhiyuan\\Desktop\\CMPS183\\web2py\\applications\\TutorPlus\\views\\default/index.html'
p5
sS'code'
p6
S'response.write(\'<!DOCTYPE html>\\r\\n<html lang="en">\\r\\n\\r\\n<head>\\r\\n\\t<title>TutorPlus</title>\\r\\n\\t<meta charset="UTF-8">\\r\\n\\t<meta name="viewport" content="width=device-width, initial-scale=1">\\r\\n\\r\\n\\t<!--========================================Login-CSS==================================================-->\\r\\n\\t<!--===============================================================================================-->\\r\\n\\t<link rel="icon" type="image/png" href="\', escape=False)\nresponse.write(URL(\'static\',\'images/icons/favicon.ico\'))\nresponse.write(\'">\\r\\n\\t<!-- <link rel="stylesheet" type="text/css" href="\', escape=False)\nresponse.write(URL(\'static\',\'vendor/bootstrap/css/bootstrap.min.css\'))\nresponse.write(\'">-->\\r\\n\\t<link rel="stylesheet" type="text/css" href="\', escape=False)\nresponse.write(URL(\'static\',\'fonts/font-awesome-4.7.0/css/font-awesome.min.css\'))\nresponse.write(\'">\\r\\n\\t<link rel="stylesheet" type="text/css" href="\', escape=False)\nresponse.write(URL(\'static\',\'fonts/iconic/css/material-design-iconic-font.min.css\'))\nresponse.write(\'">\\r\\n\\t<link rel="stylesheet" type="text/css" href="\', escape=False)\nresponse.write(URL(\'static\',\'vendor/animate/animate.css\'))\nresponse.write(\'">\\r\\n\\t<link rel="stylesheet" type="text/css" href="\', escape=False)\nresponse.write(URL(\'static\',\'vendor/css-hamburgers/hamburgers.min.css\'))\nresponse.write(\'">\\r\\n\\t<link rel="stylesheet" type="text/css" href="\', escape=False)\nresponse.write(URL(\'static\',\'vendor/animsition/css/animsition.min.css\'))\nresponse.write(\'">\\r\\n\\t<link rel="stylesheet" type="text/css" href="\', escape=False)\nresponse.write(URL(\'static\',\'vendor/select2/select2.min.css\'))\nresponse.write(\'">\\r\\n\\t<link rel="stylesheet" type="text/css" href="\', escape=False)\nresponse.write(URL(\'static\',\'vendor/daterangepicker/daterangepicker.css\'))\nresponse.write(\'">\\r\\n\\t<link rel="stylesheet" type="text/css" href="\', escape=False)\nresponse.write(URL(\'static\',\'css/util.css\'))\nresponse.write(\'">\\r\\n\\t<link href=\\\'https://fonts.googleapis.com/css?family=Roboto:100,300,400,500,700,900|Material+Icons\\\' rel="stylesheet">\\r\\n\\t<link href="https://cdn.jsdelivr.net/npm/vuetify/dist/vuetify.min.css" rel="stylesheet">\\r\\n\\t<!--===============================================================================================-->\\r\\n\\r\\n\\r\\n\\t<!--========================================Login-CSS-JS==================================================-->\\r\\n\\t<!--===============================================================================================-->\\r\\n\\t<script src="\', escape=False)\nresponse.write(URL(\'static\',\'vendor/jquery/jquery-3.2.1.min.js\'))\nresponse.write(\'"></script>\\r\\n\\t<script src="\', escape=False)\nresponse.write(URL(\'static\',\'vendor/animsition/js/animsition.min.js\'))\nresponse.write(\'"></script>\\r\\n\\t<script src="\', escape=False)\nresponse.write(URL(\'static\',\'vendor/bootstrap/js/popper.js\'))\nresponse.write(\'"></script>\\r\\n\\t<script src="\', escape=False)\nresponse.write(URL(\'static\',\'vendor/bootstrap/js/bootstrap.min.js\'))\nresponse.write(\'"></script>\\r\\n\\r\\n\\r\\n\\t\\t<script src="\', escape=False)\nresponse.write(URL(\'static\',\'vendor/select2/select2.min.js\'))\nresponse.write(\'"></script>\\r\\n    <script src="\', escape=False)\nresponse.write(URL(\'static\',\'vendor/daterangepicker/moment.min.js\'))\nresponse.write(\'"></script>\\r\\n    <script src="\', escape=False)\nresponse.write(URL(\'static\',\'vendor/daterangepicker/daterangepicker.js\'))\nresponse.write(\'"></script>\\r\\n\\t<script src="\', escape=False)\nresponse.write(URL(\'static\',\'vendor/countdowntime/countdowntime.js\'))\nresponse.write(\'"></script>\\r\\n\\t<!--===============================================================================================-->\\r\\n\\r\\n\\r\\n\\t<!--========================================Profile-Page-CSS-JS==================================================-->\\r\\n\\t<!--===============================================================================================-->\\r\\n\\t<!-- Font special for pages-->\\r\\n\\t<link href="https://fonts.googleapis.com/css?family=Roboto:100,100i,300,300i,400,400i,500,500i,700,700i,900,900i" rel="stylesheet">\\r\\n\\r\\n\\r\\n\\t<!-- Main CSS-->\\r\\n\\t<link rel="stylesheet" href="\', escape=False)\nresponse.write(URL(\'static\', \'css/userProfile.css\'))\nresponse.write(\'">\\r\\n\\t<!--===============================================================================================-->\\r\\n\\r\\n\\r\\n\\t<!--========================================Main-CSS==================================================-->\\r\\n\\t<!--===============================================================================================-->\\r\\n\\t<link rel="stylesheet" type="text/css" href="\', escape=False)\nresponse.write(URL(\'static\',\'css/index.css\'))\nresponse.write(\'">\\r\\n\\t<link rel="stylesheet" type="text/css" href="\', escape=False)\nresponse.write(URL(\'static\',\'css/main.css\'))\nresponse.write(\'">\\r\\n\\t<!--===============================================================================================-->\\r\\n\\r\\n\\r\\n\\t<!--==========================================JS=============================================-->\\r\\n\\t<!--===============================================================================================-->\\r\\n\\t<!--<script src="\', escape=False)\nresponse.write(URL(\'static\',\'js/main.js\'))\nresponse.write(\'"></script>-->\\r\\n\\t<script src="\', escape=False)\nresponse.write(URL(\'static\', \'js/vue.js\'))\nresponse.write(\'"></script>\\r\\n\\t<script src="https://unpkg.com/vue@latest"></script>\\r\\n\\t<!--<script src="https://unpkg.com/vue-select@latest"></script>-->\\r\\n\\t<script src="https://cdn.jsdelivr.net/npm/vuetify/dist/vuetify.js"></script>\\r\\n\\t<script src="\', escape=False)\nresponse.write(URL(\'static\',\'js/vue-resource.js\'))\nresponse.write(\'"></script>\\r\\n\\t<!--===============================================================================================-->\\r\\n\\r\\n\\t<!--==========================================Other=============================================-->\\r\\n\\t<!--===============================================================================================-->\\r\\n\\t\', escape=False)\nresponse.write(\'<script type="text/javascript"><!--\\n    // These variables are used by the web2py_ajax_init function in web2py_ajax.js (which is loaded below).\\n    \', escape=False)\nresponse.write(ASSIGNJS(\nw2p_ajax_confirm_message = T(\'Are you sure you want to delete this object?\'),\nw2p_ajax_disable_with_message = T(\'Working...\'),\nw2p_ajax_date_format = T(\'%Y-%m-%d\'),\nw2p_ajax_datetime_format = T(\'%Y-%m-%d %H:%M:%S\'),\najax_error_500 = T.M(\'An error occured, please [[reload %s]] the page\') % URL(args=request.args, vars=request.get_vars)\n))\nresponse.write(\'\\n    //--></script>\\n\', escape=False)\nresponse.files.insert(0,URL(\'static\',\'js/jquery.js\'))\nresponse.files.insert(1,URL(\'static\',\'css/calendar.css\'))\nresponse.files.insert(2,URL(\'static\',\'js/calendar.js\'))\nresponse.files.insert(3,URL(\'static\',\'js/web2py.js\'))\nresponse.include_meta()\nresponse.include_files()\nresponse.write(\'\\n\', escape=False)\nresponse.write(\'\\r\\n\\t<!--===============================================================================================-->\\r\\n\\r\\n\\t<!--==========================================MessageBox-Modal======================================-->\\r\\n\\t<!--===============================================================================================-->\\r\\n\\t<script type="text/x-template" id="modal-template">\\r\\n\\t\\t<transition name="modal">\\r\\n    <div class="modal-mask">\\r\\n      <div class="modal-wrapper">\\r\\n        <div class="modal-container">\\r\\n          <div class="modal-header">\\r\\n            <slot name="header">\\r\\n              Error\\r\\n            </slot>\\r\\n          </div>\\r\\n          <div class="modal-body">\\r\\n            <slot name="body">\\r\\n              default body\\r\\n            </slot>\\r\\n          </div>\\r\\n          <div class="modal-footer">\\r\\n            <slot name="footer">\\r\\n              <button class=".modal-default-button" @click="$emit(\\\'close\\\')">\\r\\n                OK\\r\\n              </button>\\r\\n            </slot>\\r\\n          </div>\\r\\n        </div>\\r\\n      </div>\\r\\n    </div>\\r\\n  </transition>\\r\\n</script>\\r\\n\\t<!--===============================================================================================-->\\r\\n\\r\\n\\r\\n\\t<!--==========================================Firebase=============================================-->\\r\\n\\t<!--===============================================================================================-->\\r\\n\\t<script src="https://www.gstatic.com/firebasejs/5.5.7/firebase.js"></script>\\r\\n\\t<script>\\r\\n\\t\\t// Initialize Firebase\\r\\n\\t\\tvar config = {\\r\\n\\t\\t\\tapiKey: "AIzaSyDWW9aZzAPulRzPU6i_23OdAx0jXPwJRVk",\\r\\n\\t\\t\\tauthDomain: "tutorplus-93a0f.firebaseapp.com",\\r\\n\\t\\t\\tdatabaseURL: "https://tutorplus-93a0f.firebaseio.com",\\r\\n\\t\\t\\tprojectId: "tutorplus-93a0f",\\r\\n\\t\\t\\tstorageBucket: "tutorplus-93a0f.appspot.com",\\r\\n\\t\\t\\tmessagingSenderId: "690236283457"\\r\\n\\t\\t};\\r\\n\\t\\tfirebase.initializeApp(config);\\r\\n\\t</script>\\r\\n\\t<!--===============================================================================================-->\\r\\n</head>\\r\\n\\r\\n<!--============================================Main==============================================-->\\r\\n<!--===============================================================================================-->\\r\\n\\r\\n<body>\\r\\n\\t\', escape=False)\nresponse.write(\'\\r\\n\', escape=False)\nresponse.write(\'\\r\\n\', escape=False)\nresponse.write(\'\\r\\n<!--\\r\\n<html>\\r\\n    <body>-->\\r\\n<div id="vue-index">\\r\\n  <v-app>\\r\\n  <!----------------------------------- login part -------------------------------->\\r\\n  <!--login_idx is used to control display: LOGIN, SIGNUP-->\\r\\n  <div id="login_part" v-show="!logged_in">\\r\\n\\r\\n    <!---login--->\\r\\n    <span v-show="login_idx === \\\'LOGIN\\\'">\\r\\n      <div class="limiter">\\r\\n        <div class="container-login100">\\r\\n          <div class="wrap-login100 p-t-85 p-b-20">\\r\\n\\r\\n            <div class="login100-form validate-form" id="login_div">\\r\\n\\r\\n              <img src="\', escape=False)\nresponse.write(URL(\'static\',\'images/Logo.png\'))\nresponse.write(\'" align="middle">\\r\\n\\r\\n              <div class="wrap-input100 validate-input m-t-85 m-b-35" data-validate="Enter username">\\r\\n                <input class="input100" type="text" name="username" id="username_field">\\r\\n                <span class="focus-input100" data-placeholder="Email"></span>\\r\\n              </div>\\r\\n\\r\\n              <div class="wrap-input100 validate-input m-b-50" data-validate="Enter password">\\r\\n                <input class="input100" type="password" name="password" id="password_field">\\r\\n                <span class="focus-input100" data-placeholder="Password"></span>\\r\\n              </div>\\r\\n\\r\\n              <div class="container-login100-form-btn">\\r\\n                <button v-on:click="login()" class="login100-form-btn">Login</button>\\r\\n              </div>\\r\\n\\r\\n              <ul class="login-more p-t-190">\\r\\n                <li>\\r\\n                  <span class="txt1">\\r\\n                    Don\\xe2\\x80\\x99t have an account?\\r\\n                  </span>\\r\\n\\r\\n                  <a href="javascript:void(0)" v-on:click="login_idx = \\\'SIGNUP\\\'" class="txt2">\\r\\n                    Sign up\\r\\n                  </a>\\r\\n                </li>\\r\\n              </ul>\\r\\n            </div>\\r\\n          </div>\\r\\n        </div>\\r\\n      </div>\\r\\n    </span>\\r\\n\\r\\n\\r\\n    <!---signup--->\\r\\n    <span v-show="login_idx === \\\'SIGNUP\\\'">\\r\\n      <div class="limiter">\\r\\n        <div class="container-login100">\\r\\n          <div class="wrap-login100 p-t-85 p-b-20">\\r\\n\\r\\n            <div class="login100-form validate-form" id="login_div">\\r\\n\\r\\n              <img src="\', escape=False)\nresponse.write(URL(\'static\',\'images/Logo.png\'))\nresponse.write(\'" align="middle">\\r\\n\\r\\n              <div class="wrap-input100 validate-input m-t-85 m-b-35" data-validate="Enter username">\\r\\n                <input class="input100" type="text" name="username-signup" id="username_signup_field">\\r\\n                <span class="focus-input100" data-placeholder="Email"></span>\\r\\n              </div>\\r\\n\\r\\n              <div class="wrap-input100 validate-input m-b-50" data-validate="Enter password">\\r\\n                <input class="input100" type="password" name="password-signup" id="password_signup_field">\\r\\n                <span class="focus-input100" data-placeholder="Password"></span>\\r\\n              </div>\\r\\n\\r\\n              <div class="wrap-input100 validate-input m-b-50" data-validate="Enter password">\\r\\n                <input class="input100" type="password" name="re-password" id="re-password_signup_field">\\r\\n                <span class="focus-input100" data-placeholder="Re-Password"></span>\\r\\n              </div>\\r\\n\\r\\n              <div class="container-login50-form-btn">\\r\\n                <button v-on:click="signup()" class="login50-form-btn">Signup</button>\\r\\n                <button v-on:click="login_idx = \\\'LOGIN\\\'" class="login50-form-btn">Return</button>\\r\\n              </div>\\r\\n            </div>\\r\\n          </div>\\r\\n        </div>\\r\\n      </div>\\r\\n    </span>\\r\\n\\r\\n    <!---messageBox--->\\r\\n    <modal v-show="is_login_messagebox_show" @close="is_login_messagebox_show = false">\\r\\n      <h3 slot="body">${ login_message }</h3>\\r\\n      <h3 slot="header">Login error</h3>\\r\\n    </modal>\\r\\n  </div>\\r\\n  <!------------------------------------------------------------------------------->\\r\\n\\r\\n\\r\\n  <!------------------------------------ main part -------------------------------->\\r\\n  <div id="main_part" v-show="logged_in">\\r\\n    <aside>\\r\\n      <figure>\\r\\n        <div id="avatar"></div>\\r\\n        <figcaption>${profile_name}</figcaption>\\r\\n      </figure>\\r\\n      <nav>\\r\\n        <ul>\\r\\n          <li><a href="javascript:void(0)" v-on:click="main_idx = \\\'HOME\\\'">Home</a></li>\\r\\n          <li><a href="javascript:void(0)" v-on:click="main_idx = \\\'SEARCH\\\'">Search</a></li>\\r\\n          <li><a href="javascript:void(0)" v-on:click="main_idx = \\\'PROFILE\\\'">Profile</a></li>\\r\\n          <li><a href="javascript:void(0)" v-on:click="main_idx = \\\'RESULT\\\'">Result</a></li>\\r\\n        </ul>\\r\\n      </nav>\\r\\n    </aside>\\r\\n\\r\\n    <main>\\r\\n      <!---home--->\\r\\n      <div v-show="main_idx === \\\'HOME\\\'">\\r\\n        <h1>Welcome to Tutor+</h1>\\r\\n        <p>Tutor+ is a right place to find your ideal tutor!</p>\\r\\n        <a href="javascript:void(0)" v-on:click="main_idx = \\\'SEARCH\\\'" class="cta">Do Search Now</a>\\r\\n        <button v-on:click="logout()">logout</button>\\r\\n      </div>\\r\\n      <!---search--->\\r\\n      <div v-show="main_idx === \\\'SEARCH\\\'">\\r\\n\\r\\n        <div class="card card-1">\\r\\n          <div class="card-heading"></div>\\r\\n          <div class="card-body">\\r\\n\\r\\n            <h3>You can</h3>\\r\\n\\r\\n            <v-layout row>\\r\\n              <v-flex xs5>\\r\\n              <v-autocomplete v-model="search_university" :items="school_list" :label="`University`"  clearable>\\r\\n                <v-slide-x-reverse-transition slot="append-outer" mode="out-in">\\r\\n                </v-slide-x-reverse-transition>\\r\\n              </v-autocomplete>\\r\\n              </v-flex>\\r\\n\\r\\n              <v-flex xs4>\\r\\n                <v-autocomplete v-model="search_course" :items="profile_major_list" :label="`Course`"  clearable>\\r\\n                  <v-slide-x-reverse-transition slot="append-outer" mode="out-in">\\r\\n                  </v-slide-x-reverse-transition>\\r\\n                </v-autocomplete>\\r\\n                <!--<v-text-field v-model="profile_major" label="Major"></v-text-field>-->\\r\\n              </v-flex>\\r\\n              <v-flex xs2>\\r\\n                <v-btn color="info">Search by course</v-btn>\\r\\n              </v-flex>\\r\\n            </v-layout>\\r\\n\\r\\n            <h3>or</h3>\\r\\n\\r\\n            <v-layout row>\\r\\n              <v-flex xs5 sm5 md3>\\r\\n                <v-text-field v-model="search_name" label="Tutor Name"  clearable></v-text-field>\\r\\n              </v-flex>\\r\\n\\r\\n              <v-flex  xs2>\\r\\n                <v-btn color="info">Search by name</v-btn>\\r\\n              </v-flex>\\r\\n            </v-layout>\\r\\n\\r\\n            <v-card color="purple" dark>\\r\\n            <v-card-title primary class="title">Lorem</v-card-title>\\r\\n            <v-card-text>\', escape=False)\nlorem\nresponse.write(\'</v-card-text>\\r\\n            </v-card>\\r\\n\\r\\n          </div><!--Card body-->\\r\\n        </div><!--Card-->\\r\\n      </div>\\r\\n\\r\\n\\r\\n      <!---profile--->\\r\\n      <div v-show="main_idx === \\\'PROFILE\\\'">\\r\\n\\r\\n        <div class="wrapper wrapper--w680">\\r\\n        <div class="card card-1">\\r\\n\\r\\n            <div class="card-heading"></div>\\r\\n            <div class="card-body">\\r\\n\\r\\n              <div v-if="!become_a_TA">\\r\\n                <h2 class="title">Update your Profile</h2>\\r\\n\\r\\n                <div>\\r\\n                  <v-flex xs12 sm6>\\r\\n                    <v-text-field\\r\\n                      v-bind:value="profile_email"\\r\\n                      label="Email"\\r\\n                      disabled\\r\\n                    ></v-text-field>\\r\\n                  </v-flex>\\r\\n                </div>\\r\\n\\r\\n                <div>\\r\\n                  <v-flex xs12 sm6>\\r\\n                    <v-text-field v-model="profile_name" label="Name"></v-text-field>\\r\\n                  </v-flex>\\r\\n                </div>\\r\\n\\r\\n                <div>\\r\\n                  <v-autocomplete v-model="profile_university" :items="school_list" :label="`University`" clearable>\\r\\n                    <v-slide-x-reverse-transition slot="append-outer" mode="out-in">\\r\\n                    </v-slide-x-reverse-transition>\\r\\n                  </v-autocomplete>\\r\\n                </div>\\r\\n\\r\\n                <div>\\r\\n                  <v-flex xs12 sm6>\\r\\n                    <v-autocomplete v-model="profile_major" :items="profile_major_list" :label="`Major`" clearable>\\r\\n                      <v-slide-x-reverse-transition slot="append-outer" mode="out-in">\\r\\n                      </v-slide-x-reverse-transition>\\r\\n                    </v-autocomplete>\\r\\n                    <!--<v-text-field v-model="profile_major" label="Major"></v-text-field>-->\\r\\n                  </v-flex>\\r\\n                </div>\\r\\n\\r\\n                <div>\\r\\n                  <v-flex xs12 sm6 md3>\\r\\n                  <v-autocomplete v-model="profile_gender" :items="[\\\'Male\\\',\\\'Female\\\']" :label="`Gender`">\\r\\n                    <v-slide-x-reverse-transition slot="append-outer" mode="out-in">\\r\\n                    </v-slide-x-reverse-transition>\\r\\n                  </v-autocomplete>\\r\\n                  </v-flex>\\r\\n                </div>\\r\\n\\r\\n                <v-textarea\\r\\n                  v-model="profile_personal_statement"\\r\\n                  color="teal"\\r\\n                  placeholder="Talk about yourself..."\\r\\n                  style="margin-top:45px; margin-bottom:25px"\\r\\n                >\\r\\n                  <div slot="label">\\r\\n                    Personal Statement <small></small>\\r\\n                  </div>\\r\\n                </v-textarea>\\r\\n\\r\\n\\r\\n                <v-layout row wrap>\\r\\n                  <div class="p-t-20" style="margin-right:15px">\\r\\n                    <button class="btn btn--radius btn--green" v-on:click="updateProfile()">Update</button>\\r\\n                  </div>\\r\\n                  <div class="p-t-20">\\r\\n                    <button class="btn btn--radius btn--green" v-on:click="become_a_TA=true">Become a Tutor!</button>\\r\\n                  </div>\\r\\n                </v-layout>\\r\\n\\r\\n              </div>\\r\\n\\r\\n              <div v-if="become_a_TA">\\r\\n                <h2 class="title">Update your Profile</h2>\\r\\n\\r\\n\\r\\n                <ta-course-card\\r\\n                  v-for="TutorCard in tutor_card_list"\\r\\n                  v-bind:card="TutorCard"\\r\\n                  v-bind:school_list="school_list"\\r\\n                  v-bind:school_data="school_data">\\r\\n                </ta-course-card>\\r\\n\\r\\n                <i class="fa fa-plus-circle" style="font-size:30px" v-on:click="newTutorCard()"></i>\\r\\n\\r\\n                <v-layout row wrap>\\r\\n                  <div class="p-t-20" style="margin-right:15px">\\r\\n                    <button class="btn btn--radius btn--green" v-on:click="updateTutorProfile()">Update</button>\\r\\n                  </div>\\r\\n                  <div class="p-t-20">\\r\\n                    <button class="btn btn--radius btn--green" v-on:click="become_a_TA=false">Back To You Personal Profile</button>\\r\\n                  </div>\\r\\n                </v-layout>\\r\\n\\r\\n              </div>\\r\\n\\r\\n            </div>\\r\\n\\r\\n        </div>\\r\\n        </div>\\r\\n\\r\\n\\r\\n\\r\\n\\r\\n      </div>\\r\\n\\r\\n\\r\\n      <!---result--->\\r\\n      <div v-show="main_idx === \\\'RESULT\\\'">\\r\\n        Result page\\r\\n      </div>\\r\\n\\r\\n    </main>\\r\\n  </div>\\r\\n  <!------------------------------------------------------------------------------->\\r\\n</v-app>\\r\\n</div>\\r\\n\\r\\n\\r\\n\\r\\n<!-- Main JS-->\\r\\n<script src="\', escape=False)\nresponse.write(URL(\'static\', \'js/default_index.js\'))\nresponse.write(\'"></script>\\r\\n\\r\\n<!--\\r\\n</body>\\r\\n</html>-->\\r\\n\', escape=False)\nresponse.write(\'\\r\\n</body>\\r\\n\\r\\n</html>\\r\\n\\r\\n<!--===============================================================================================-->\\r\\n\', escape=False)'
p7
sS'snapshot'
p8
(dp9
S'exception'
p10
(dp11
S'__getslice__'
p12
S"<method-wrapper '__getslice__' of exceptions.NameError object>"
p13
sS'__str__'
p14
S"<method-wrapper '__str__' of exceptions.NameError object>"
p15
sS'__reduce__'
p16
S'<built-in method __reduce__ of exceptions.NameError object>'
p17
sS'__dict__'
p18
S'{}'
p19
sS'message'
p20
S'"name \'lorem\' is not defined"'
p21
sS'__sizeof__'
p22
S'<built-in method __sizeof__ of exceptions.NameError object>'
p23
sS'__init__'
p24
S"<method-wrapper '__init__' of exceptions.NameError object>"
p25
sS'__setattr__'
p26
S"<method-wrapper '__setattr__' of exceptions.NameError object>"
p27
sS'__reduce_ex__'
p28
S'<built-in method __reduce_ex__ of exceptions.NameError object>'
p29
sS'__new__'
p30
S'<built-in method __new__ of type object>'
p31
sS'__format__'
p32
S'<built-in method __format__ of exceptions.NameError object>'
p33
sS'__class__'
p34
S"<type 'exceptions.NameError'>"
p35
sS'__doc__'
p36
S"'Name not found globally.'"
p37
sS'__getitem__'
p38
S"<method-wrapper '__getitem__' of exceptions.NameError object>"
p39
sS'__setstate__'
p40
S'<built-in method __setstate__ of exceptions.NameError object>'
p41
sS'__getattribute__'
p42
S"<method-wrapper '__getattribute__' of exceptions.NameError object>"
p43
sS'args'
p44
S'("name \'lorem\' is not defined",)'
p45
sS'__subclasshook__'
p46
S'<built-in method __subclasshook__ of type object>'
p47
sS'__unicode__'
p48
S'<built-in method __unicode__ of exceptions.NameError object>'
p49
sS'__delattr__'
p50
S"<method-wrapper '__delattr__' of exceptions.NameError object>"
p51
sS'__repr__'
p52
S"<method-wrapper '__repr__' of exceptions.NameError object>"
p53
sS'__hash__'
p54
S"<method-wrapper '__hash__' of exceptions.NameError object>"
p55
ssS'evalue'
p56
S"name 'lorem' is not defined"
p57
sS'request'
p58
cgluon.html
XML_unpickle
p59
(S's\xad`\x00\x00<div><table><tr><td style="font-weight:bold;vertical-align:top;">ajax</td><td style="vertical-align:top;">:</td><td><div>False</div></td></tr><tr><td style="font-weight:bold;vertical-align:top;">application</td><td style="vertical-align:top;">:</td><td><div>TutorPlus</div></td></tr><tr><td style="font-weight:bold;vertical-align:top;">args</td><td style="vertical-align:top;">:</td><td><div><table></table></div></td></tr><tr><td style="font-weight:bold;vertical-align:top;">cid</td><td style="vertical-align:top;">:</td><td><div>None</div></td></tr><tr><td style="font-weight:bold;vertical-align:top;">client</td><td style="vertical-align:top;">:</td><td><div>127.0.0.1</div></td></tr><tr><td style="font-weight:bold;vertical-align:top;">controller</td><td style="vertical-align:top;">:</td><td><div>default</div></td></tr><tr><td style="font-weight:bold;vertical-align:top;">cookies</td><td style="vertical-align:top;">:</td><td><div><table><tr><td style="font-weight:bold;vertical-align:top;">session_id_admin</td><td style="vertical-align:top;">:</td><td><div>127.0.0.1-0f7cf8df-8fa4-47d8-8074-55f8ffd1a65f<table><tr><td style="font-weight:bold;vertical-align:top;">comment</td><td style="vertical-align:top;">:</td><td><div></div></td></tr><tr><td style="font-weight:bold;vertical-align:top;">domain</td><td style="vertical-align:top;">:</td><td><div></div></td></tr><tr><td style="font-weight:bold;vertical-align:top;">expires</td><td style="vertical-align:top;">:</td><td><div></div></td></tr><tr><td style="font-weight:bold;vertical-align:top;">httponly</td><td style="vertical-align:top;">:</td><td><div></div></td></tr><tr><td style="font-weight:bold;vertical-align:top;">max-age</td><td style="vertical-align:top;">:</td><td><div></div></td></tr><tr><td style="font-weight:bold;vertical-align:top;">path</td><td style="vertical-align:top;">:</td><td><div></div></td></tr><tr><td style="font-weight:bold;vertical-align:top;">samesite</td><td style="vertical-align:top;">:</td><td><div></div></td></tr><tr><td style="font-weight:bold;vertical-align:top;">secure</td><td style="vertical-align:top;">:</td><td><div></div></td></tr><tr><td style="font-weight:bold;vertical-align:top;">version</td><td style="vertical-align:top;">:</td><td><div></div></td></tr></table></div></td></tr><tr><td style="font-weight:bold;vertical-align:top;">session_id_tutorplus</td><td style="vertical-align:top;">:</td><td><div>127.0.0.1-e2df0dad-b6da-4747-8267-8ab21d8d74cc<table><tr><td style="font-weight:bold;vertical-align:top;">comment</td><td style="vertical-align:top;">:</td><td><div></div></td></tr><tr><td style="font-weight:bold;vertical-align:top;">domain</td><td style="vertical-align:top;">:</td><td><div></div></td></tr><tr><td style="font-weight:bold;vertical-align:top;">expires</td><td style="vertical-align:top;">:</td><td><div></div></td></tr><tr><td style="font-weight:bold;vertical-align:top;">httponly</td><td style="vertical-align:top;">:</td><td><div></div></td></tr><tr><td style="font-weight:bold;vertical-align:top;">max-age</td><td style="vertical-align:top;">:</td><td><div></div></td></tr><tr><td style="font-weight:bold;vertical-align:top;">path</td><td style="vertical-align:top;">:</td><td><div></div></td></tr><tr><td style="font-weight:bold;vertical-align:top;">samesite</td><td style="vertical-align:top;">:</td><td><div></div></td></tr><tr><td style="font-weight:bold;vertical-align:top;">secure</td><td style="vertical-align:top;">:</td><td><div></div></td></tr><tr><td style="font-weight:bold;vertical-align:top;">version</td><td style="vertical-align:top;">:</td><td><div></div></td></tr></table></div></td></tr><tr><td style="font-weight:bold;vertical-align:top;">session_id_welcome</td><td style="vertical-align:top;">:</td><td><div>127.0.0.1-92f38867-1d1f-4dea-ad89-ce81c8d75a79<table><tr><td style="font-weight:bold;vertical-align:top;">comment</td><td style="vertical-align:top;">:</td><td><div></div></td></tr><tr><td style="font-weight:bold;vertical-align:top;">domain</td><td style="vertical-align:top;">:</td><td><div></div></td></tr><tr><td style="font-weight:bold;vertical-align:top;">expires</td><td style="vertical-align:top;">:</td><td><div></div></td></tr><tr><td style="font-weight:bold;vertical-align:top;">httponly</td><td style="vertical-align:top;">:</td><td><div></div></td></tr><tr><td style="font-weight:bold;vertical-align:top;">max-age</td><td style="vertical-align:top;">:</td><td><div></div></td></tr><tr><td style="font-weight:bold;vertical-align:top;">path</td><td style="vertical-align:top;">:</td><td><div></div></td></tr><tr><td style="font-weight:bold;vertical-align:top;">samesite</td><td style="vertical-align:top;">:</td><td><div></div></td></tr><tr><td style="font-weight:bold;vertical-align:top;">secure</td><td style="vertical-align:top;">:</td><td><div></div></td></tr><tr><td style="font-weight:bold;vertical-align:top;">version</td><td style="vertical-align:top;">:</td><td><div></div></td></tr></table></div></td></tr></table></div></td></tr><tr><td style="font-weight:bold;vertical-align:top;">env</td><td style="vertical-align:top;">:</td><td><div><table><tr><td style="font-weight:bold;vertical-align:top;">HTTP_ACCEPT</td><td style="vertical-align:top;">:</td><td><div>text/html,application/xhtml+xml,application/xml;q=0.9,*/*;q=0.8</div></td></tr><tr><td style="font-weight:bold;vertical-align:top;">HTTP_ACCEPT_ENCODING</td><td style="vertical-align:top;">:</td><td><div>gzip, deflate</div></td></tr><tr><td style="font-weight:bold;vertical-align:top;">HTTP_ACCEPT_LANGUAGE</td><td style="vertical-align:top;">:</td><td><div>en-US,en;q=0.5</div></td></tr><tr><td style="font-weight:bold;vertical-align:top;">HTTP_CACHE_CONTROL</td><td style="vertical-align:top;">:</td><td><div>max-age=0</div></td></tr><tr><td style="font-weight:bold;vertical-align:top;">HTTP_CONNECTION</td><td style="vertical-align:top;">:</td><td><div>keep-alive</div></td></tr><tr><td style="font-weight:bold;vertical-align:top;">HTTP_COOKIE</td><td style="vertical-align:top;">:</td><td><div>session_id_welcome=127.0.0.1-92f38867-1d1f-4dea-ad89-ce81c8d75a79; session_id_admin=127.0.0.1-0f7cf8df-8fa4-47d8-8074-55f8ffd1a65f; session_id_tutorplus=127.0.0.1-e2df0dad-b6da-4747-8267-8ab21d8d74cc</div></td></tr><tr><td style="font-weight:bold;vertical-align:top;">HTTP_HOST</td><td style="vertical-align:top;">:</td><td><div>127.0.0.1:8000</div></td></tr><tr><td style="font-weight:bold;vertical-align:top;">HTTP_REFERER</td><td style="vertical-align:top;">:</td><td><div>http://127.0.0.1:8000/admin/default/site</div></td></tr><tr><td style="font-weight:bold;vertical-align:top;">HTTP_UPGRADE_INSECURE_REQUESTS</td><td style="vertical-align:top;">:</td><td><div>1</div></td></tr><tr><td style="font-weight:bold;vertical-align:top;">HTTP_USER_AGENT</td><td style="vertical-align:top;">:</td><td><div>Mozilla/5.0 (Windows NT 10.0; Win64; x64; rv:63.0) Gecko/20100101 Firefox/63.0</div></td></tr><tr><td style="font-weight:bold;vertical-align:top;">PATH_INFO</td><td style="vertical-align:top;">:</td><td><div>/TutorPlus/default/index</div></td></tr><tr><td style="font-weight:bold;vertical-align:top;">QUERY_STRING</td><td style="vertical-align:top;">:</td><td><div></div></td></tr><tr><td style="font-weight:bold;vertical-align:top;">REMOTE_ADDR</td><td style="vertical-align:top;">:</td><td><div>127.0.0.1</div></td></tr><tr><td style="font-weight:bold;vertical-align:top;">REMOTE_PORT</td><td style="vertical-align:top;">:</td><td><div>51812</div></td></tr><tr><td style="font-weight:bold;vertical-align:top;">REQUEST_METHOD</td><td style="vertical-align:top;">:</td><td><div>GET</div></td></tr><tr><td style="font-weight:bold;vertical-align:top;">SCRIPT_NAME</td><td style="vertical-align:top;">:</td><td><div></div></td></tr><tr><td style="font-weight:bold;vertical-align:top;">SERVER_NAME</td><td style="vertical-align:top;">:</td><td><div>Jason_Zhang_Y50</div></td></tr><tr><td style="font-weight:bold;vertical-align:top;">SERVER_PORT</td><td style="vertical-align:top;">:</td><td><div>8000</div></td></tr><tr><td style="font-weight:bold;vertical-align:top;">SERVER_PROTOCOL</td><td style="vertical-align:top;">:</td><td><div>HTTP/1.1</div></td></tr><tr><td style="font-weight:bold;vertical-align:top;">SERVER_SOFTWARE</td><td style="vertical-align:top;">:</td><td><div>Rocket 1.2.6</div></td></tr><tr><td style="font-weight:bold;vertical-align:top;">app_folders</td><td style="vertical-align:top;">:</td><td><div>set([&#x27;C:\\\\Users\\\\Zhiyuan\\\\Desktop\\\\CMPS183\\\\web2py\\\\applications\\\\TutorPlus\\\\&#x27;, &#x27;C:\\\\Users\\\\Zhiyuan\\\\Desktop\\\\CMPS183\\\\web2py\\\\applications\\\\admin\\\\&#x27;, &#x27;C:\\\\Users\\\\Zhiyuan\\\\Desktop\\\\CMPS183\\\\web2py\\\\applications\\\\welcome\\\\&#x27;])</div></td></tr><tr><td style="font-weight:bold;vertical-align:top;">applications_parent</td><td style="vertical-align:top;">:</td><td><div>C:\\Users\\Zhiyuan\\Desktop\\CMPS183\\web2py</div></td></tr><tr><td style="font-weight:bold;vertical-align:top;">cmd_args</td><td style="vertical-align:top;">:</td><td><div><table></table></div></td></tr><tr><td style="font-weight:bold;vertical-align:top;">cmd_options</td><td style="vertical-align:top;">:</td><td><div>&lt;Values at 0x3471288: {&#x27;verbose&#x27;: False, &#x27;ip&#x27;: &#x27;127.0.0.1&#x27;, &#x27;debuglevel&#x27;: 30, &#x27;with_scheduler&#x27;: False, &#x27;shutdown_timeout&#x27;: 5, &#x27;taskbar&#x27;: False, &#x27;with_coverage&#x27;: False, &#x27;pid_filename&#x27;: &#x27;httpserver.pid&#x27;, &#x27;maxthreads&#x27;: None, &#x27;softcron&#x27;: False, &#x27;server_name&#x27;: &#x27;Jason_Zhang_Y50&#x27;, &#x27;bpython&#x27;: False, &#x27;nogui&#x27;: False, &#x27;port&#x27;: 8000, &#x27;print_errors&#x27;: False, &#x27;extcron&#x27;: False, &#x27;runcron&#x27;: False, &#x27;run_system_tests&#x27;: False, &#x27;test&#x27;: None, &#x27;folder&#x27;: &#x27;C:\\\\Users\\\\Zhiyuan\\\\Desktop\\\\CMPS183\\\\web2py&#x27;, &#x27;config&#x27;: &#x27;&#x27;, &#x27;minthreads&#x27;: None, &#x27;shell&#x27;: None, &#x27;run&#x27;: &#x27;&#x27;, &#x27;log_filename&#x27;: &#x27;httpserver.log&#x27;, &#x27;profiler_dir&#x27;: None, &#x27;args&#x27;: [&#x27;&#x27;], &#x27;socket_timeout&#x27;: 5, &#x27;ssl_ca_certificate&#x27;: None, &#x27;scheduler&#x27;: None, &#x27;interfaces&#x27;: None, &#x27;ssl_private_key&#x27;: &#x27;&#x27;, &#x27;gae&#x27;: None, &#x27;password&#x27;: &#x27;******&#x27;, &#x27;request_queue_size&#x27;: 5, &#x27;ssl_certificate&#x27;: &#x27;&#x27;, &#x27;cronjob&#x27;: False, &#x27;numthreads&#x27;: None, &#x27;quiet&#x27;: False, &#x27;import_models&#x27;: False, &#x27;timeout&#x27;: 10, &#x27;plain&#x27;: False, &#x27;nobanner&#x27;: False}&gt;</div></td></tr><tr><td style="font-weight:bold;vertical-align:top;">db_sessions</td><td style="vertical-align:top;">:</td><td><div>set([])</div></td></tr><tr><td style="font-weight:bold;vertical-align:top;">debugging</td><td style="vertical-align:top;">:</td><td><div>False</div></td></tr><tr><td style="font-weight:bold;vertical-align:top;">gluon_parent</td><td style="vertical-align:top;">:</td><td><div>C:\\Users\\Zhiyuan\\Desktop\\CMPS183\\web2py</div></td></tr><tr><td style="font-weight:bold;vertical-align:top;">http_accept</td><td style="vertical-align:top;">:</td><td><div>text/html,application/xhtml+xml,application/xml;q=0.9,*/*;q=0.8</div></td></tr><tr><td style="font-weight:bold;vertical-align:top;">http_accept_encoding</td><td style="vertical-align:top;">:</td><td><div>gzip, deflate</div></td></tr><tr><td style="font-weight:bold;vertical-align:top;">http_accept_language</td><td style="vertical-align:top;">:</td><td><div>en-US,en;q=0.5</div></td></tr><tr><td style="font-weight:bold;vertical-align:top;">http_cache_control</td><td style="vertical-align:top;">:</td><td><div>max-age=0</div></td></tr><tr><td style="font-weight:bold;vertical-align:top;">http_connection</td><td style="vertical-align:top;">:</td><td><div>keep-alive</div></td></tr><tr><td style="font-weight:bold;vertical-align:top;">http_cookie</td><td style="vertical-align:top;">:</td><td><div>session_id_welcome=127.0.0.1-92f38867-1d1f-4dea-ad89-ce81c8d75a79; session_id_admin=127.0.0.1-0f7cf8df-8fa4-47d8-8074-55f8ffd1a65f; session_id_tutorplus=127.0.0.1-e2df0dad-b6da-4747-8267-8ab21d8d74cc</div></td></tr><tr><td style="font-weight:bold;vertical-align:top;">http_host</td><td style="vertical-align:top;">:</td><td><div>127.0.0.1:8000</div></td></tr><tr><td style="font-weight:bold;vertical-align:top;">http_referer</td><td style="vertical-align:top;">:</td><td><div>http://127.0.0.1:8000/admin/default/site</div></td></tr><tr><td style="font-weight:bold;vertical-align:top;">http_upgrade_insecure_requests</td><td style="vertical-align:top;">:</td><td><div>1</div></td></tr><tr><td style="font-weight:bold;vertical-align:top;">http_user_agent</td><td style="vertical-align:top;">:</td><td><div>Mozilla/5.0 (Windows NT 10.0; Win64; x64; rv:63.0) Gecko/20100101 Firefox/63.0</div></td></tr><tr><td style="font-weight:bold;vertical-align:top;">is_jython</td><td style="vertical-align:top;">:</td><td><div>False</div></td></tr><tr><td style="font-weight:bold;vertical-align:top;">is_py2</td><td style="vertical-align:top;">:</td><td><div>True</div></td></tr><tr><td style="font-weight:bold;vertical-align:top;">is_pypy</td><td style="vertical-align:top;">:</td><td><div>False</div></td></tr><tr><td style="font-weight:bold;vertical-align:top;">is_source</td><td style="vertical-align:top;">:</td><td><div>False</div></td></tr><tr><td style="font-weight:bold;vertical-align:top;">local_hosts</td><td style="vertical-align:top;">:</td><td><div><table><tr><td><div>Jason_Zhang_Y50</div></td></tr><tr><td><div>::ffff:127.0.0.1</div></td></tr><tr><td><div>::1</div></td></tr><tr><td><div>192.168.1.4</div></td></tr><tr><td><div>fe80::51e3:98d6:5db8:27a4%14</div></td></tr><tr><td><div>127.0.0.1</div></td></tr></table></div></td></tr><tr><td style="font-weight:bold;vertical-align:top;">path_info</td><td style="vertical-align:top;">:</td><td><div>/TutorPlus/default/index</div></td></tr><tr><td style="font-weight:bold;vertical-align:top;">query_string</td><td style="vertical-align:top;">:</td><td><div></div></td></tr><tr><td style="font-weight:bold;vertical-align:top;">remote_addr</td><td style="vertical-align:top;">:</td><td><div>127.0.0.1</div></td></tr><tr><td style="font-weight:bold;vertical-align:top;">remote_port</td><td style="vertical-align:top;">:</td><td><div>51812</div></td></tr><tr><td style="font-weight:bold;vertical-align:top;">request_method</td><td style="vertical-align:top;">:</td><td><div>GET</div></td></tr><tr><td style="font-weight:bold;vertical-align:top;">request_uri</td><td style="vertical-align:top;">:</td><td><div>/TutorPlus/default/index</div></td></tr><tr><td style="font-weight:bold;vertical-align:top;">script_name</td><td style="vertical-align:top;">:</td><td><div></div></td></tr><tr><td style="font-weight:bold;vertical-align:top;">server_name</td><td style="vertical-align:top;">:</td><td><div>Jason_Zhang_Y50</div></td></tr><tr><td style="font-weight:bold;vertical-align:top;">server_port</td><td style="vertical-align:top;">:</td><td><div>8000</div></td></tr><tr><td style="font-weight:bold;vertical-align:top;">server_protocol</td><td style="vertical-align:top;">:</td><td><div>HTTP/1.1</div></td></tr><tr><td style="font-weight:bold;vertical-align:top;">server_software</td><td style="vertical-align:top;">:</td><td><div>Rocket 1.2.6</div></td></tr><tr><td style="font-weight:bold;vertical-align:top;">web2py_path</td><td style="vertical-align:top;">:</td><td><div>C:\\Users\\Zhiyuan\\Desktop\\CMPS183\\web2py</div></td></tr><tr><td style="font-weight:bold;vertical-align:top;">web2py_version</td><td style="vertical-align:top;">:</td><td><div>2.17.2-stable+timestamp.2018.10.06.18.54.02</div></td></tr><tr><td style="font-weight:bold;vertical-align:top;">wsgi.errors</td><td style="vertical-align:top;">:</td><td><div>&lt;open file &#x27;&lt;stderr&gt;&#x27;, mode &#x27;w&#x27; at 0x024AD0D0&gt;</div></td></tr><tr><td style="font-weight:bold;vertical-align:top;">wsgi.file_wrapper</td><td style="vertical-align:top;">:</td><td><div>&lt;class wsgiref.util.FileWrapper at 0x03342960&gt;</div></td></tr><tr><td style="font-weight:bold;vertical-align:top;">wsgi.input</td><td style="vertical-align:top;">:</td><td><div>&lt;socket._fileobject object at 0x04485530&gt;</div></td></tr><tr><td style="font-weight:bold;vertical-align:top;">wsgi.multiprocess</td><td style="vertical-align:top;">:</td><td><div>False</div></td></tr><tr><td style="font-weight:bold;vertical-align:top;">wsgi.multithread</td><td style="vertical-align:top;">:</td><td><div>True</div></td></tr><tr><td style="font-weight:bold;vertical-align:top;">wsgi.run_once</td><td style="vertical-align:top;">:</td><td><div>False</div></td></tr><tr><td style="font-weight:bold;vertical-align:top;">wsgi.url_scheme</td><td style="vertical-align:top;">:</td><td><div>http</div></td></tr><tr><td style="font-weight:bold;vertical-align:top;">wsgi.version</td><td style="vertical-align:top;">:</td><td><div><table><tr><td><div>1</div></td></tr><tr><td><div>0</div></td></tr></table></div></td></tr><tr><td style="font-weight:bold;vertical-align:top;">wsgi_errors</td><td style="vertical-align:top;">:</td><td><div>&lt;open file &#x27;&lt;stderr&gt;&#x27;, mode &#x27;w&#x27; at 0x024AD0D0&gt;</div></td></tr><tr><td style="font-weight:bold;vertical-align:top;">wsgi_file_wrapper</td><td style="vertical-align:top;">:</td><td><div>&lt;class wsgiref.util.FileWrapper at 0x03342960&gt;</div></td></tr><tr><td style="font-weight:bold;vertical-align:top;">wsgi_input</td><td style="vertical-align:top;">:</td><td><div>&lt;socket._fileobject object at 0x04485530&gt;</div></td></tr><tr><td style="font-weight:bold;vertical-align:top;">wsgi_multiprocess</td><td style="vertical-align:top;">:</td><td><div>False</div></td></tr><tr><td style="font-weight:bold;vertical-align:top;">wsgi_multithread</td><td style="vertical-align:top;">:</td><td><div>True</div></td></tr><tr><td style="font-weight:bold;vertical-align:top;">wsgi_run_once</td><td style="vertical-align:top;">:</td><td><div>False</div></td></tr><tr><td style="font-weight:bold;vertical-align:top;">wsgi_url_scheme</td><td style="vertical-align:top;">:</td><td><div>http</div></td></tr><tr><td style="font-weight:bold;vertical-align:top;">wsgi_version</td><td style="vertical-align:top;">:</td><td><div><table><tr><td><div>1</div></td></tr><tr><td><div>0</div></td></tr></table></div></td></tr></table></div></td></tr><tr><td style="font-weight:bold;vertical-align:top;">extension</td><td style="vertical-align:top;">:</td><td><div>html</div></td></tr><tr><td style="font-weight:bold;vertical-align:top;">folder</td><td style="vertical-align:top;">:</td><td><div>C:\\Users\\Zhiyuan\\Desktop\\CMPS183\\web2py\\applications\\TutorPlus\\</div></td></tr><tr><td style="font-weight:bold;vertical-align:top;">function</td><td style="vertical-align:top;">:</td><td><div>index</div></td></tr><tr><td style="font-weight:bold;vertical-align:top;">global_settings</td><td style="vertical-align:top;">:</td><td><div><table><tr><td style="font-weight:bold;vertical-align:top;">app_folders</td><td style="vertical-align:top;">:</td><td><div>set([&#x27;C:\\\\Users\\\\Zhiyuan\\\\Desktop\\\\CMPS183\\\\web2py\\\\applications\\\\TutorPlus\\\\&#x27;, &#x27;C:\\\\Users\\\\Zhiyuan\\\\Desktop\\\\CMPS183\\\\web2py\\\\applications\\\\admin\\\\&#x27;, &#x27;C:\\\\Users\\\\Zhiyuan\\\\Desktop\\\\CMPS183\\\\web2py\\\\applications\\\\welcome\\\\&#x27;])</div></td></tr><tr><td style="font-weight:bold;vertical-align:top;">applications_parent</td><td style="vertical-align:top;">:</td><td><div>C:\\Users\\Zhiyuan\\Desktop\\CMPS183\\web2py</div></td></tr><tr><td style="font-weight:bold;vertical-align:top;">cmd_args</td><td style="vertical-align:top;">:</td><td><div><table></table></div></td></tr><tr><td style="font-weight:bold;vertical-align:top;">cmd_options</td><td style="vertical-align:top;">:</td><td><div>&lt;Values at 0x3471288: {&#x27;verbose&#x27;: False, &#x27;ip&#x27;: &#x27;127.0.0.1&#x27;, &#x27;debuglevel&#x27;: 30, &#x27;with_scheduler&#x27;: False, &#x27;shutdown_timeout&#x27;: 5, &#x27;taskbar&#x27;: False, &#x27;with_coverage&#x27;: False, &#x27;pid_filename&#x27;: &#x27;httpserver.pid&#x27;, &#x27;maxthreads&#x27;: None, &#x27;softcron&#x27;: False, &#x27;server_name&#x27;: &#x27;Jason_Zhang_Y50&#x27;, &#x27;bpython&#x27;: False, &#x27;nogui&#x27;: False, &#x27;port&#x27;: 8000, &#x27;print_errors&#x27;: False, &#x27;extcron&#x27;: False, &#x27;runcron&#x27;: False, &#x27;run_system_tests&#x27;: False, &#x27;test&#x27;: None, &#x27;folder&#x27;: &#x27;C:\\\\Users\\\\Zhiyuan\\\\Desktop\\\\CMPS183\\\\web2py&#x27;, &#x27;config&#x27;: &#x27;&#x27;, &#x27;minthreads&#x27;: None, &#x27;shell&#x27;: None, &#x27;run&#x27;: &#x27;&#x27;, &#x27;log_filename&#x27;: &#x27;httpserver.log&#x27;, &#x27;profiler_dir&#x27;: None, &#x27;args&#x27;: [&#x27;&#x27;], &#x27;socket_timeout&#x27;: 5, &#x27;ssl_ca_certificate&#x27;: None, &#x27;scheduler&#x27;: None, &#x27;interfaces&#x27;: None, &#x27;ssl_private_key&#x27;: &#x27;&#x27;, &#x27;gae&#x27;: None, &#x27;password&#x27;: &#x27;******&#x27;, &#x27;request_queue_size&#x27;: 5, &#x27;ssl_certificate&#x27;: &#x27;&#x27;, &#x27;cronjob&#x27;: False, &#x27;numthreads&#x27;: None, &#x27;quiet&#x27;: False, &#x27;import_models&#x27;: False, &#x27;timeout&#x27;: 10, &#x27;plain&#x27;: False, &#x27;nobanner&#x27;: False}&gt;</div></td></tr><tr><td style="font-weight:bold;vertical-align:top;">db_sessions</td><td style="vertical-align:top;">:</td><td><div>set([])</div></td></tr><tr><td style="font-weight:bold;vertical-align:top;">debugging</td><td style="vertical-align:top;">:</td><td><div>False</div></td></tr><tr><td style="font-weight:bold;vertical-align:top;">gluon_parent</td><td style="vertical-align:top;">:</td><td><div>C:\\Users\\Zhiyuan\\Desktop\\CMPS183\\web2py</div></td></tr><tr><td style="font-weight:bold;vertical-align:top;">is_jython</td><td style="vertical-align:top;">:</td><td><div>False</div></td></tr><tr><td style="font-weight:bold;vertical-align:top;">is_py2</td><td style="vertical-align:top;">:</td><td><div>True</div></td></tr><tr><td style="font-weight:bold;vertical-align:top;">is_pypy</td><td style="vertical-align:top;">:</td><td><div>False</div></td></tr><tr><td style="font-weight:bold;vertical-align:top;">is_source</td><td style="vertical-align:top;">:</td><td><div>False</div></td></tr><tr><td style="font-weight:bold;vertical-align:top;">local_hosts</td><td style="vertical-align:top;">:</td><td><div><table><tr><td><div>Jason_Zhang_Y50</div></td></tr><tr><td><div>::ffff:127.0.0.1</div></td></tr><tr><td><div>::1</div></td></tr><tr><td><div>192.168.1.4</div></td></tr><tr><td><div>fe80::51e3:98d6:5db8:27a4%14</div></td></tr><tr><td><div>127.0.0.1</div></td></tr></table></div></td></tr><tr><td style="font-weight:bold;vertical-align:top;">web2py_version</td><td style="vertical-align:top;">:</td><td><div>2.17.2-stable+timestamp.2018.10.06.18.54.02</div></td></tr></table></div></td></tr><tr><td style="font-weight:bold;vertical-align:top;">is_https</td><td style="vertical-align:top;">:</td><td><div>False</div></td></tr><tr><td style="font-weight:bold;vertical-align:top;">is_local</td><td style="vertical-align:top;">:</td><td><div>True</div></td></tr><tr><td style="font-weight:bold;vertical-align:top;">is_restful</td><td style="vertical-align:top;">:</td><td><div>False</div></td></tr><tr><td style="font-weight:bold;vertical-align:top;">is_scheduler</td><td style="vertical-align:top;">:</td><td><div>False</div></td></tr><tr><td style="font-weight:bold;vertical-align:top;">is_shell</td><td style="vertical-align:top;">:</td><td><div>False</div></td></tr><tr><td style="font-weight:bold;vertical-align:top;">method</td><td style="vertical-align:top;">:</td><td><div>GET</div></td></tr><tr><td style="font-weight:bold;vertical-align:top;">now</td><td style="vertical-align:top;">:</td><td><div>datetime.datetime(2018, 12, 1, 20, 4, 23, 537000)</div></td></tr><tr><td style="font-weight:bold;vertical-align:top;">raw_args</td><td style="vertical-align:top;">:</td><td><div></div></td></tr><tr><td style="font-weight:bold;vertical-align:top;">raw_extension</td><td style="vertical-align:top;">:</td><td><div>None</div></td></tr><tr><td style="font-weight:bold;vertical-align:top;">url</td><td style="vertical-align:top;">:</td><td><div>/TutorPlus/default/index</div></td></tr><tr><td style="font-weight:bold;vertical-align:top;">utcnow</td><td style="vertical-align:top;">:</td><td><div>datetime.datetime(2018, 12, 2, 4, 4, 23, 537000)</div></td></tr><tr><td style="font-weight:bold;vertical-align:top;">wsgi</td><td style="vertical-align:top;">:</td><td><div>&lt;gluon.main.LazyWSGI object at 0x096A1A10&gt;</div></td></tr></table></div>'
tRp60
sS'frames'
p61
(lp62
(dp63
S'file'
p64
S'C:\\Users\\Zhiyuan\\Desktop\\CMPS183\\web2py\\gluon\\restricted.py'
p65
sS'dump'
p66
(dp67
S'environment'
p68
S"{'A': <class 'gluon.html.A'>, 'ANY_OF': <class 'gluon.validators.ANY_OF'>, 'ASSIGNJS': <function ASSIGNJS>, 'AppConfig': <function AppConfig>, 'B': <class 'gluon.html.B'>, 'BEAUTIFY': <class 'gluon.html.BEAUTIFY'>, 'BODY': <class 'gluon.html.BODY'>, 'BR': <class 'gluon.html.BR'>, 'BUTTON': <class 'gluon.html.BUTTON'>, 'CAT': <class 'gluon.html.CAT'>, ...}"
p69
sS'ccode'
p70
S'<code object <module> at 096A6B18, file "C:\\User...ions\\TutorPlus\\views\\default/index.html", line 1>'
p71
ssS'lnum'
p72
I219
sS'lines'
p73
(dp74
I214
S'    if environment is None:'
p75
sI215
S'        environment = {}'
p76
sI216
S"    environment['__file__'] = layer"
p77
sI217
S"    environment['__name__'] = '__restricted__'"
p78
sI218
S'    try:'
p79
sI219
S'        exec(ccode, environment)'
p80
sI220
S'    except HTTP:'
p81
sI221
S'        raise'
p82
sI222
S'    except RestrictedError:'
p83
sI223
S'        # do not encapsulate (obfuscate) the original RestrictedError'
p84
ssS'call'
p85
S'(ccode=<code object <module> at 096A6B18, file "C:\\User...ions\\TutorPlus\\views\\default/index.html", line 1>, environment={\'A\': <class \'gluon.html.A\'>, \'ANY_OF\': <class \'gluon.validators.ANY_OF\'>, \'ASSIGNJS\': <function ASSIGNJS>, \'AppConfig\': <function AppConfig>, \'B\': <class \'gluon.html.B\'>, \'BEAUTIFY\': <class \'gluon.html.BEAUTIFY\'>, \'BODY\': <class \'gluon.html.BODY\'>, \'BR\': <class \'gluon.html.BR\'>, \'BUTTON\': <class \'gluon.html.BUTTON\'>, \'CAT\': <class \'gluon.html.CAT\'>, ...}, layer=r\'C:\\Users\\Zhiyuan\\Desktop\\CMPS183\\web2py\\applications\\TutorPlus\\views\\default/index.html\', scode=\'response.write(\\\'<!DOCTYPE html>\\\\r\\\\n<html lang="e...==========================-->\\\\r\\\\n\\\', escape=False)\')'
p86
sS'func'
p87
S'restricted'
p88
sa(dp89
g64
S'C:\\Users\\Zhiyuan\\Desktop\\CMPS183\\web2py\\applications\\TutorPlus\\views\\default\\index.html'
p90
sg66
(dp91
S'div'
p92
S'undefined'
p93
sS'data'
p94
g93
sS'validate'
p95
g93
ssg72
I74
sg73
(dp96
I65
S"response.write('\\n', escape=False)"
p97
sI66
S'response.write(\'\\r\\n\\t<!--===============================================================================================-->\\r\\n\\r\\n\\t<!--==========================================MessageBox-Modal======================================-->\\r\\n\\t<!--===============================================================================================-->\\r\\n\\t<script type="text/x-template" id="modal-template">\\r\\n\\t\\t<transition name="modal">\\r\\n    <div class="modal-mask">\\r\\n      <div class="modal-wrapper">\\r\\n        <div class="modal-container">\\r\\n          <div class="modal-header">\\r\\n            <slot name="header">\\r\\n              Error\\r\\n            </slot>\\r\\n          </div>\\r\\n          <div class="modal-body">\\r\\n            <slot name="body">\\r\\n              default body\\r\\n            </slot>\\r\\n          </div>\\r\\n          <div class="modal-footer">\\r\\n            <slot name="footer">\\r\\n              <button class=".modal-default-button" @click="$emit(\\\'close\\\')">\\r\\n                OK\\r\\n              </button>\\r\\n            </slot>\\r\\n          </div>\\r\\n        </div>\\r\\n      </div>\\r\\n    </div>\\r\\n  </transition>\\r\\n</script>\\r\\n\\t<!--===============================================================================================-->\\r\\n\\r\\n\\r\\n\\t<!--==========================================Firebase=============================================-->\\r\\n\\t<!--===============================================================================================-->\\r\\n\\t<script src="https://www.gstatic.com/firebasejs/5.5.7/firebase.js"></script>\\r\\n\\t<script>\\r\\n\\t\\t// Initialize Firebase\\r\\n\\t\\tvar config = {\\r\\n\\t\\t\\tapiKey: "AIzaSyDWW9aZzAPulRzPU6i_23OdAx0jXPwJRVk",\\r\\n\\t\\t\\tauthDomain: "tutorplus-93a0f.firebaseapp.com",\\r\\n\\t\\t\\tdatabaseURL: "https://tutorplus-93a0f.firebaseio.com",\\r\\n\\t\\t\\tprojectId: "tutorplus-93a0f",\\r\\n\\t\\t\\tstorageBucket: "tutorplus-93a0f.appspot.com",\\r\\n\\t\\t\\tmessagingSenderId: "690236283457"\\r\\n\\t\\t};\\r\\n\\t\\tfirebase.initializeApp(config);\\r\\n\\t</script>\\r\\n\\t<!--===============================================================================================-->\\r\\n</head>\\r\\n\\r\\n<!--============================================Main==============================================-->\\r\\n<!--===============================================================================================-->\\r\\n\\r\\n<body>\\r\\n\\t\', escape=False)'
p98
sI67
S"response.write('\\r\\n', escape=False)"
p99
sI68
S"response.write('\\r\\n', escape=False)"
p100
sI69
S'response.write(\'\\r\\n<!--\\r\\n<html>\\r\\n    <body>-->\\r\\n<div id="vue-index">\\r\\n  <v-app>\\r\\n  <!----------------------------------- login part -------------------------------->\\r\\n  <!--login_idx is used to control display: LOGIN, SIGNUP-->\\r\\n  <div id="login_part" v-show="!logged_in">\\r\\n\\r\\n    <!---login--->\\r\\n    <span v-show="login_idx === \\\'LOGIN\\\'">\\r\\n      <div class="limiter">\\r\\n        <div class="container-login100">\\r\\n          <div class="wrap-login100 p-t-85 p-b-20">\\r\\n\\r\\n            <div class="login100-form validate-form" id="login_div">\\r\\n\\r\\n              <img src="\', escape=False)'
p101
sI70
S"response.write(URL('static','images/Logo.png'))"
p102
sI71
S'response.write(\'" align="middle">\\r\\n\\r\\n              <div class="wrap-input100 validate-input m-t-85 m-b-35" data-validate="Enter username">\\r\\n                <input class="input100" type="text" name="username" id="username_field">\\r\\n                <span class="focus-input100" data-placeholder="Email"></span>\\r\\n              </div>\\r\\n\\r\\n              <div class="wrap-input100 validate-input m-b-50" data-validate="Enter password">\\r\\n                <input class="input100" type="password" name="password" id="password_field">\\r\\n                <span class="focus-input100" data-placeholder="Password"></span>\\r\\n              </div>\\r\\n\\r\\n              <div class="container-login100-form-btn">\\r\\n                <button v-on:click="login()" class="login100-form-btn">Login</button>\\r\\n              </div>\\r\\n\\r\\n              <ul class="login-more p-t-190">\\r\\n                <li>\\r\\n                  <span class="txt1">\\r\\n                    Don\\xe2\\x80\\x99t have an account?\\r\\n                  </span>\\r\\n\\r\\n                  <a href="javascript:void(0)" v-on:click="login_idx = \\\'SIGNUP\\\'" class="txt2">\\r\\n                    Sign up\\r\\n                  </a>\\r\\n                </li>\\r\\n              </ul>\\r\\n            </div>\\r\\n          </div>\\r\\n        </div>\\r\\n      </div>\\r\\n    </span>\\r\\n\\r\\n\\r\\n    <!---signup--->\\r\\n    <span v-show="login_idx === \\\'SIGNUP\\\'">\\r\\n      <div class="limiter">\\r\\n        <div class="container-login100">\\r\\n          <div class="wrap-login100 p-t-85 p-b-20">\\r\\n\\r\\n            <div class="login100-form validate-form" id="login_div">\\r\\n\\r\\n              <img src="\', escape=False)'
p103
sI72
S"response.write(URL('static','images/Logo.png'))"
p104
sI73
S'response.write(\'" align="middle">\\r\\n\\r\\n              <div class="wrap-input100 validate-input m-t-85 m-b-35" data-validate="Enter username">\\r\\n                <input class="input100" type="text" name="username-signup" id="username_signup_field">\\r\\n                <span class="focus-input100" data-placeholder="Email"></span>\\r\\n              </div>\\r\\n\\r\\n              <div class="wrap-input100 validate-input m-b-50" data-validate="Enter password">\\r\\n                <input class="input100" type="password" name="password-signup" id="password_signup_field">\\r\\n                <span class="focus-input100" data-placeholder="Password"></span>\\r\\n              </div>\\r\\n\\r\\n              <div class="wrap-input100 validate-input m-b-50" data-validate="Enter password">\\r\\n                <input class="input100" type="password" name="re-password" id="re-password_signup_field">\\r\\n                <span class="focus-input100" data-placeholder="Re-Password"></span>\\r\\n              </div>\\r\\n\\r\\n              <div class="container-login50-form-btn">\\r\\n                <button v-on:click="signup()" class="login50-form-btn">Signup</button>\\r\\n                <button v-on:click="login_idx = \\\'LOGIN\\\'" class="login50-form-btn">Return</button>\\r\\n              </div>\\r\\n            </div>\\r\\n          </div>\\r\\n        </div>\\r\\n      </div>\\r\\n    </span>\\r\\n\\r\\n    <!---messageBox--->\\r\\n    <modal v-show="is_login_messagebox_show" @close="is_login_messagebox_show = false">\\r\\n      <h3 slot="body">${ login_message }</h3>\\r\\n      <h3 slot="header">Login error</h3>\\r\\n    </modal>\\r\\n  </div>\\r\\n  <!------------------------------------------------------------------------------->\\r\\n\\r\\n\\r\\n  <!------------------------------------ main part -------------------------------->\\r\\n  <div id="main_part" v-show="logged_in">\\r\\n    <aside>\\r\\n      <figure>\\r\\n        <div id="avatar"></div>\\r\\n        <figcaption>${profile_name}</figcaption>\\r\\n      </figure>\\r\\n      <nav>\\r\\n        <ul>\\r\\n          <li><a href="javascript:void(0)" v-on:click="main_idx = \\\'HOME\\\'">Home</a></li>\\r\\n          <li><a href="javascript:void(0)" v-on:click="main_idx = \\\'SEARCH\\\'">Search</a></li>\\r\\n          <li><a href="javascript:void(0)" v-on:click="main_idx = \\\'PROFILE\\\'">Profile</a></li>\\r\\n          <li><a href="javascript:void(0)" v-on:click="main_idx = \\\'RESULT\\\'">Result</a></li>\\r\\n        </ul>\\r\\n      </nav>\\r\\n    </aside>\\r\\n\\r\\n    <main>\\r\\n      <!---home--->\\r\\n      <div v-show="main_idx === \\\'HOME\\\'">\\r\\n        <h1>Welcome to Tutor+</h1>\\r\\n        <p>Tutor+ is a right place to find your ideal tutor!</p>\\r\\n        <a href="javascript:void(0)" v-on:click="main_idx = \\\'SEARCH\\\'" class="cta">Do Search Now</a>\\r\\n        <button v-on:click="logout()">logout</button>\\r\\n      </div>\\r\\n      <!---search--->\\r\\n      <div v-show="main_idx === \\\'SEARCH\\\'">\\r\\n\\r\\n        <div class="card card-1">\\r\\n          <div class="card-heading"></div>\\r\\n          <div class="card-body">\\r\\n\\r\\n            <h3>You can</h3>\\r\\n\\r\\n            <v-layout row>\\r\\n              <v-flex xs5>\\r\\n              <v-autocomplete v-model="search_university" :items="school_list" :label="`University`"  clearable>\\r\\n                <v-slide-x-reverse-transition slot="append-outer" mode="out-in">\\r\\n                </v-slide-x-reverse-transition>\\r\\n              </v-autocomplete>\\r\\n              </v-flex>\\r\\n\\r\\n              <v-flex xs4>\\r\\n                <v-autocomplete v-model="search_course" :items="profile_major_list" :label="`Course`"  clearable>\\r\\n                  <v-slide-x-reverse-transition slot="append-outer" mode="out-in">\\r\\n                  </v-slide-x-reverse-transition>\\r\\n                </v-autocomplete>\\r\\n                <!--<v-text-field v-model="profile_major" label="Major"></v-text-field>-->\\r\\n              </v-flex>\\r\\n              <v-flex xs2>\\r\\n                <v-btn color="info">Search by course</v-btn>\\r\\n              </v-flex>\\r\\n            </v-layout>\\r\\n\\r\\n            <h3>or</h3>\\r\\n\\r\\n            <v-layout row>\\r\\n              <v-flex xs5 sm5 md3>\\r\\n                <v-text-field v-model="search_name" label="Tutor Name"  clearable></v-text-field>\\r\\n              </v-flex>\\r\\n\\r\\n              <v-flex  xs2>\\r\\n                <v-btn color="info">Search by name</v-btn>\\r\\n              </v-flex>\\r\\n            </v-layout>\\r\\n\\r\\n            <v-card color="purple" dark>\\r\\n            <v-card-title primary class="title">Lorem</v-card-title>\\r\\n            <v-card-text>\', escape=False)'
p105
sI74
S'lorem'
p106
sI75
S'response.write(\'</v-card-text>\\r\\n            </v-card>\\r\\n\\r\\n          </div><!--Card body-->\\r\\n        </div><!--Card-->\\r\\n      </div>\\r\\n\\r\\n\\r\\n      <!---profile--->\\r\\n      <div v-show="main_idx === \\\'PROFILE\\\'">\\r\\n\\r\\n        <div class="wrapper wrapper--w680">\\r\\n        <div class="card card-1">\\r\\n\\r\\n            <div class="card-heading"></div>\\r\\n            <div class="card-body">\\r\\n\\r\\n              <div v-if="!become_a_TA">\\r\\n                <h2 class="title">Update your Profile</h2>\\r\\n\\r\\n                <div>\\r\\n                  <v-flex xs12 sm6>\\r\\n                    <v-text-field\\r\\n                      v-bind:value="profile_email"\\r\\n                      label="Email"\\r\\n                      disabled\\r\\n                    ></v-text-field>\\r\\n                  </v-flex>\\r\\n                </div>\\r\\n\\r\\n                <div>\\r\\n                  <v-flex xs12 sm6>\\r\\n                    <v-text-field v-model="profile_name" label="Name"></v-text-field>\\r\\n                  </v-flex>\\r\\n                </div>\\r\\n\\r\\n                <div>\\r\\n                  <v-autocomplete v-model="profile_university" :items="school_list" :label="`University`" clearable>\\r\\n                    <v-slide-x-reverse-transition slot="append-outer" mode="out-in">\\r\\n                    </v-slide-x-reverse-transition>\\r\\n                  </v-autocomplete>\\r\\n                </div>\\r\\n\\r\\n                <div>\\r\\n                  <v-flex xs12 sm6>\\r\\n                    <v-autocomplete v-model="profile_major" :items="profile_major_list" :label="`Major`" clearable>\\r\\n                      <v-slide-x-reverse-transition slot="append-outer" mode="out-in">\\r\\n                      </v-slide-x-reverse-transition>\\r\\n                    </v-autocomplete>\\r\\n                    <!--<v-text-field v-model="profile_major" label="Major"></v-text-field>-->\\r\\n                  </v-flex>\\r\\n                </div>\\r\\n\\r\\n                <div>\\r\\n                  <v-flex xs12 sm6 md3>\\r\\n                  <v-autocomplete v-model="profile_gender" :items="[\\\'Male\\\',\\\'Female\\\']" :label="`Gender`">\\r\\n                    <v-slide-x-reverse-transition slot="append-outer" mode="out-in">\\r\\n                    </v-slide-x-reverse-transition>\\r\\n                  </v-autocomplete>\\r\\n                  </v-flex>\\r\\n                </div>\\r\\n\\r\\n                <v-textarea\\r\\n                  v-model="profile_personal_statement"\\r\\n                  color="teal"\\r\\n                  placeholder="Talk about yourself..."\\r\\n                  style="margin-top:45px; margin-bottom:25px"\\r\\n                >\\r\\n                  <div slot="label">\\r\\n                    Personal Statement <small></small>\\r\\n                  </div>\\r\\n                </v-textarea>\\r\\n\\r\\n\\r\\n                <v-layout row wrap>\\r\\n                  <div class="p-t-20" style="margin-right:15px">\\r\\n                    <button class="btn btn--radius btn--green" v-on:click="updateProfile()">Update</button>\\r\\n                  </div>\\r\\n                  <div class="p-t-20">\\r\\n                    <button class="btn btn--radius btn--green" v-on:click="become_a_TA=true">Become a Tutor!</button>\\r\\n                  </div>\\r\\n                </v-layout>\\r\\n\\r\\n              </div>\\r\\n\\r\\n              <div v-if="become_a_TA">\\r\\n                <h2 class="title">Update your Profile</h2>\\r\\n\\r\\n\\r\\n                <ta-course-card\\r\\n                  v-for="TutorCard in tutor_card_list"\\r\\n                  v-bind:card="TutorCard"\\r\\n                  v-bind:school_list="school_list"\\r\\n                  v-bind:school_data="school_data">\\r\\n                </ta-course-card>\\r\\n\\r\\n                <i class="fa fa-plus-circle" style="font-size:30px" v-on:click="newTutorCard()"></i>\\r\\n\\r\\n                <v-layout row wrap>\\r\\n                  <div class="p-t-20" style="margin-right:15px">\\r\\n                    <button class="btn btn--radius btn--green" v-on:click="updateTutorProfile()">Update</button>\\r\\n                  </div>\\r\\n                  <div class="p-t-20">\\r\\n                    <button class="btn btn--radius btn--green" v-on:click="become_a_TA=false">Back To You Personal Profile</button>\\r\\n                  </div>\\r\\n                </v-layout>\\r\\n\\r\\n              </div>\\r\\n\\r\\n            </div>\\r\\n\\r\\n        </div>\\r\\n        </div>\\r\\n\\r\\n\\r\\n\\r\\n\\r\\n      </div>\\r\\n\\r\\n\\r\\n      <!---result--->\\r\\n      <div v-show="main_idx === \\\'RESULT\\\'">\\r\\n        Result page\\r\\n      </div>\\r\\n\\r\\n    </main>\\r\\n  </div>\\r\\n  <!------------------------------------------------------------------------------->\\r\\n</v-app>\\r\\n</div>\\r\\n\\r\\n\\r\\n\\r\\n<!-- Main JS-->\\r\\n<script src="\', escape=False)'
p107
sI76
S"response.write(URL('static', 'js/default_index.js'))"
p108
sI77
S'response.write(\'"></script>\\r\\n\\r\\n<!--\\r\\n</body>\\r\\n</html>-->\\r\\n\', escape=False)'
p109
sI78
S"response.write('\\r\\n</body>\\r\\n\\r\\n</html>\\r\\n\\r\\n<!--===============================================================================================-->\\r\\n', escape=False)"
p110
ssg85
S'()'
p111
sg87
S'<module>'
p112
sasS'pyver'
p113
S'Python 2.7.9: C:\\Users\\Zhiyuan\\Desktop\\CMPS183\\web2py\\web2py.exe (prefix: C:\\Python27)'
p114
sS'session'
p115
g59
(S's\x1a\x00\x00\x00<div><table></table></div>'
tRp116
sS'etype'
p117
S"<type 'exceptions.NameError'>"
p118
sS'date'
p119
S'Sat Dec 01 20:04:23 2018'
p120
sS'response'
p121
g59
(S's\xec=\x00\x00<div><table><tr><td style="font-weight:bold;vertical-align:top;">body</td><td style="vertical-align:top;">:</td><td><div>&lt;cStringIO.StringO object at 0x0961EA80&gt;</div></td></tr><tr><td style="font-weight:bold;vertical-align:top;">cookies</td><td style="vertical-align:top;">:</td><td><div><table><tr><td style="font-weight:bold;vertical-align:top;">session_id_tutorplus</td><td style="vertical-align:top;">:</td><td><div>127.0.0.1-1eb085bb-d108-4fa2-bbcb-c8eb199c20b9<table><tr><td style="font-weight:bold;vertical-align:top;">comment</td><td style="vertical-align:top;">:</td><td><div></div></td></tr><tr><td style="font-weight:bold;vertical-align:top;">domain</td><td style="vertical-align:top;">:</td><td><div></div></td></tr><tr><td style="font-weight:bold;vertical-align:top;">expires</td><td style="vertical-align:top;">:</td><td><div></div></td></tr><tr><td style="font-weight:bold;vertical-align:top;">httponly</td><td style="vertical-align:top;">:</td><td><div></div></td></tr><tr><td style="font-weight:bold;vertical-align:top;">max-age</td><td style="vertical-align:top;">:</td><td><div></div></td></tr><tr><td style="font-weight:bold;vertical-align:top;">path</td><td style="vertical-align:top;">:</td><td><div>/</div></td></tr><tr><td style="font-weight:bold;vertical-align:top;">samesite</td><td style="vertical-align:top;">:</td><td><div></div></td></tr><tr><td style="font-weight:bold;vertical-align:top;">secure</td><td style="vertical-align:top;">:</td><td><div></div></td></tr><tr><td style="font-weight:bold;vertical-align:top;">version</td><td style="vertical-align:top;">:</td><td><div></div></td></tr></table></div></td></tr></table></div></td></tr><tr><td style="font-weight:bold;vertical-align:top;">delimiters</td><td style="vertical-align:top;">:</td><td><div><table><tr><td><div>{{</div></td></tr><tr><td><div>}}</div></td></tr></table></div></td></tr><tr><td style="font-weight:bold;vertical-align:top;">files</td><td style="vertical-align:top;">:</td><td><div><table><tr><td><div>/TutorPlus/static/js/jquery.js</div></td></tr><tr><td><div>/TutorPlus/static/css/calendar.css</div></td></tr><tr><td><div>/TutorPlus/static/js/calendar.js</div></td></tr><tr><td><div>/TutorPlus/static/js/web2py.js</div></td></tr></table></div></td></tr><tr><td style="font-weight:bold;vertical-align:top;">flash</td><td style="vertical-align:top;">:</td><td><div></div></td></tr><tr><td style="font-weight:bold;vertical-align:top;">form_label_separator</td><td style="vertical-align:top;">:</td><td><div></div></td></tr><tr><td style="font-weight:bold;vertical-align:top;">formstyle</td><td style="vertical-align:top;">:</td><td><div>bootstrap4_inline</div></td></tr><tr><td style="font-weight:bold;vertical-align:top;">generic_patterns</td><td style="vertical-align:top;">:</td><td><div><table><tr><td><div>*</div></td></tr></table></div></td></tr><tr><td style="font-weight:bold;vertical-align:top;">google_analytics_id</td><td style="vertical-align:top;">:</td><td><div>None</div></td></tr><tr><td style="font-weight:bold;vertical-align:top;">headers</td><td style="vertical-align:top;">:</td><td><div><table><tr><td style="font-weight:bold;vertical-align:top;">X-Powered-By</td><td style="vertical-align:top;">:</td><td><div>web2py</div></td></tr></table></div></td></tr><tr><td style="font-weight:bold;vertical-align:top;">menu</td><td style="vertical-align:top;">:</td><td><div><table><tr><td><div><table><tr><td><div>Home</div></td></tr><tr><td><div>False</div></td></tr><tr><td><div>/TutorPlus/default/index</div></td></tr><tr><td><div><table></table></div></td></tr></table></div></td></tr><tr><td><div><table><tr><td><div>My Sites</div></td></tr><tr><td><div>False</div></td></tr><tr><td><div>/admin/default/site</div></td></tr></table></div></td></tr><tr><td><div><table><tr><td><div>This App</div></td></tr><tr><td><div>False</div></td></tr><tr><td><div>#</div></td></tr><tr><td><div><table><tr><td><div><table><tr><td><div>Design</div></td></tr><tr><td><div>False</div></td></tr><tr><td><div>/admin/default/design/TutorPlus</div></td></tr></table></div></td></tr><tr><td><div><table><tr><td><div>Controller</div></td></tr><tr><td><div>False</div></td></tr><tr><td><div>/admin/default/edit/TutorPlus/controllers/default.py</div></td></tr></table></div></td></tr><tr><td><div><table><tr><td><div>View</div></td></tr><tr><td><div>False</div></td></tr><tr><td><div>/admin/default/edit/TutorPlus/views/default/index.html</div></td></tr></table></div></td></tr><tr><td><div><table><tr><td><div>DB Model</div></td></tr><tr><td><div>False</div></td></tr><tr><td><div>/admin/default/edit/TutorPlus/models/db.py</div></td></tr></table></div></td></tr><tr><td><div><table><tr><td><div>Menu Model</div></td></tr><tr><td><div>False</div></td></tr><tr><td><div>/admin/default/edit/TutorPlus/models/menu.py</div></td></tr></table></div></td></tr><tr><td><div><table><tr><td><div>Config.ini</div></td></tr><tr><td><div>False</div></td></tr><tr><td><div>/admin/default/edit/TutorPlus/private/appconfig.ini</div></td></tr></table></div></td></tr><tr><td><div><table><tr><td><div>Layout</div></td></tr><tr><td><div>False</div></td></tr><tr><td><div>/admin/default/edit/TutorPlus/views/layout.html</div></td></tr></table></div></td></tr><tr><td><div><table><tr><td><div>Stylesheet</div></td></tr><tr><td><div>False</div></td></tr><tr><td><div>/admin/default/edit/TutorPlus/static/css/web2py-bootstrap3.css</div></td></tr></table></div></td></tr><tr><td><div><table><tr><td><div>Database</div></td></tr><tr><td><div>False</div></td></tr><tr><td><div>/TutorPlus/appadmin/index</div></td></tr></table></div></td></tr><tr><td><div><table><tr><td><div>Errors</div></td></tr><tr><td><div>False</div></td></tr><tr><td><div>/admin/default/errors/TutorPlus</div></td></tr></table></div></td></tr><tr><td><div><table><tr><td><div>About</div></td></tr><tr><td><div>False</div></td></tr><tr><td><div>/admin/default/about/TutorPlus</div></td></tr></table></div></td></tr></table></div></td></tr></table></div></td></tr><tr><td><div><table><tr><td><div>web2py.com</div></td></tr><tr><td><div>False</div></td></tr><tr><td><div>#</div></td></tr><tr><td><div><table><tr><td><div><table><tr><td><div>Download</div></td></tr><tr><td><div>False</div></td></tr><tr><td><div>http://www.web2py.com/examples/default/download</div></td></tr></table></div></td></tr><tr><td><div><table><tr><td><div>Support</div></td></tr><tr><td><div>False</div></td></tr><tr><td><div>http://www.web2py.com/examples/default/support</div></td></tr></table></div></td></tr><tr><td><div><table><tr><td><div>Demo</div></td></tr><tr><td><div>False</div></td></tr><tr><td><div>http://web2py.com/demo_admin</div></td></tr></table></div></td></tr><tr><td><div><table><tr><td><div>Quick Examples</div></td></tr><tr><td><div>False</div></td></tr><tr><td><div>http://web2py.com/examples/default/examples</div></td></tr></table></div></td></tr><tr><td><div><table><tr><td><div>FAQ</div></td></tr><tr><td><div>False</div></td></tr><tr><td><div>http://web2py.com/AlterEgo</div></td></tr></table></div></td></tr><tr><td><div><table><tr><td><div>Videos</div></td></tr><tr><td><div>False</div></td></tr><tr><td><div>http://www.web2py.com/examples/default/videos/</div></td></tr></table></div></td></tr><tr><td><div><table><tr><td><div>Free Applications</div></td></tr><tr><td><div>False</div></td></tr><tr><td><div>http://web2py.com/appliances</div></td></tr></table></div></td></tr><tr><td><div><table><tr><td><div>Plugins</div></td></tr><tr><td><div>False</div></td></tr><tr><td><div>http://web2py.com/plugins</div></td></tr></table></div></td></tr><tr><td><div><table><tr><td><div>Recipes</div></td></tr><tr><td><div>False</div></td></tr><tr><td><div>http://web2pyslices.com/</div></td></tr></table></div></td></tr></table></div></td></tr></table></div></td></tr><tr><td><div><table><tr><td><div>Documentation</div></td></tr><tr><td><div>False</div></td></tr><tr><td><div>#</div></td></tr><tr><td><div><table><tr><td><div><table><tr><td><div>Online book</div></td></tr><tr><td><div>False</div></td></tr><tr><td><div>http://www.web2py.com/book</div></td></tr></table></div></td></tr><tr><td><div><table><tr><td><div>Preface</div></td></tr><tr><td><div>False</div></td></tr><tr><td><div>http://www.web2py.com/book/default/chapter/00</div></td></tr></table></div></td></tr><tr><td><div><table><tr><td><div>Introduction</div></td></tr><tr><td><div>False</div></td></tr><tr><td><div>http://www.web2py.com/book/default/chapter/01</div></td></tr></table></div></td></tr><tr><td><div><table><tr><td><div>Python</div></td></tr><tr><td><div>False</div></td></tr><tr><td><div>http://www.web2py.com/book/default/chapter/02</div></td></tr></table></div></td></tr><tr><td><div><table><tr><td><div>Overview</div></td></tr><tr><td><div>False</div></td></tr><tr><td><div>http://www.web2py.com/book/default/chapter/03</div></td></tr></table></div></td></tr><tr><td><div><table><tr><td><div>The Core</div></td></tr><tr><td><div>False</div></td></tr><tr><td><div>http://www.web2py.com/book/default/chapter/04</div></td></tr></table></div></td></tr><tr><td><div><table><tr><td><div>The Views</div></td></tr><tr><td><div>False</div></td></tr><tr><td><div>http://www.web2py.com/book/default/chapter/05</div></td></tr></table></div></td></tr><tr><td><div><table><tr><td><div>Database</div></td></tr><tr><td><div>False</div></td></tr><tr><td><div>http://www.web2py.com/book/default/chapter/06</div></td></tr></table></div></td></tr><tr><td><div><table><tr><td><div>Forms and Validators</div></td></tr><tr><td><div>False</div></td></tr><tr><td><div>http://www.web2py.com/book/default/chapter/07</div></td></tr></table></div></td></tr><tr><td><div><table><tr><td><div>Email and SMS</div></td></tr><tr><td><div>False</div></td></tr><tr><td><div>http://www.web2py.com/book/default/chapter/08</div></td></tr></table></div></td></tr><tr><td><div><table><tr><td><div>Access Control</div></td></tr><tr><td><div>False</div></td></tr><tr><td><div>http://www.web2py.com/book/default/chapter/09</div></td></tr></table></div></td></tr><tr><td><div><table><tr><td><div>Services</div></td></tr><tr><td><div>False</div></td></tr><tr><td><div>http://www.web2py.com/book/default/chapter/10</div></td></tr></table></div></td></tr><tr><td><div><table><tr><td><div>Ajax Recipes</div></td></tr><tr><td><div>False</div></td></tr><tr><td><div>http://www.web2py.com/book/default/chapter/11</div></td></tr></table></div></td></tr><tr><td><div><table><tr><td><div>Components and Plugins</div></td></tr><tr><td><div>False</div></td></tr><tr><td><div>http://www.web2py.com/book/default/chapter/12</div></td></tr></table></div></td></tr><tr><td><div><table><tr><td><div>Deployment Recipes</div></td></tr><tr><td><div>False</div></td></tr><tr><td><div>http://www.web2py.com/book/default/chapter/13</div></td></tr></table></div></td></tr><tr><td><div><table><tr><td><div>Other Recipes</div></td></tr><tr><td><div>False</div></td></tr><tr><td><div>http://www.web2py.com/book/default/chapter/14</div></td></tr></table></div></td></tr><tr><td><div><table><tr><td><div>Helping web2py</div></td></tr><tr><td><div>False</div></td></tr><tr><td><div>http://www.web2py.com/book/default/chapter/15</div></td></tr></table></div></td></tr><tr><td><div><table><tr><td><div>Buy web2py\'s book</div></td></tr><tr><td><div>False</div></td></tr><tr><td><div>http://stores.lulu.com/web2py</div></td></tr></table></div></td></tr></table></div></td></tr></table></div></td></tr><tr><td><div><table><tr><td><div>Community</div></td></tr><tr><td><div>False</div></td></tr><tr><td><div>None</div></td></tr><tr><td><div><table><tr><td><div><table><tr><td><div>Groups</div></td></tr><tr><td><div>False</div></td></tr><tr><td><div>http://www.web2py.com/examples/default/usergroups</div></td></tr></table></div></td></tr><tr><td><div><table><tr><td><div>Twitter</div></td></tr><tr><td><div>False</div></td></tr><tr><td><div>http://twitter.com/web2py</div></td></tr></table></div></td></tr><tr><td><div><table><tr><td><div>Live Chat</div></td></tr><tr><td><div>False</div></td></tr><tr><td><div>http://webchat.freenode.net/?channels=web2py</div></td></tr></table></div></td></tr></table></div></td></tr></table></div></td></tr></table></div></td></tr><tr><td style="font-weight:bold;vertical-align:top;">meta</td><td style="vertical-align:top;">:</td><td><div><table><tr><td style="font-weight:bold;vertical-align:top;">author</td><td style="vertical-align:top;">:</td><td><div>Your Name &lt;you@example.com&gt;</div></td></tr><tr><td style="font-weight:bold;vertical-align:top;">description</td><td style="vertical-align:top;">:</td><td><div>a cool new app</div></td></tr><tr><td style="font-weight:bold;vertical-align:top;">generator</td><td style="vertical-align:top;">:</td><td><div>Web2py Web Framework</div></td></tr><tr><td style="font-weight:bold;vertical-align:top;">keywords</td><td style="vertical-align:top;">:</td><td><div><table><tr><td><div>web2py</div></td></tr><tr><td><div>python</div></td></tr><tr><td><div>framework</div></td></tr></table></div></td></tr></table></div></td></tr><tr><td style="font-weight:bold;vertical-align:top;">models_to_run</td><td style="vertical-align:top;">:</td><td><div><table><tr><td><div>^\\w+\\.py$</div></td></tr><tr><td><div>^default/\\w+\\.py$</div></td></tr><tr><td><div>^default/index/\\w+\\.py$</div></td></tr></table></div></td></tr><tr><td style="font-weight:bold;vertical-align:top;">postprocessing</td><td style="vertical-align:top;">:</td><td><div><table></table></div></td></tr><tr><td style="font-weight:bold;vertical-align:top;">session_client</td><td style="vertical-align:top;">:</td><td><div>127.0.0.1</div></td></tr><tr><td style="font-weight:bold;vertical-align:top;">session_cookie_compression_level</td><td style="vertical-align:top;">:</td><td><div>None</div></td></tr><tr><td style="font-weight:bold;vertical-align:top;">session_cookie_expires</td><td style="vertical-align:top;">:</td><td><div>None</div></td></tr><tr><td style="font-weight:bold;vertical-align:top;">session_data_name</td><td style="vertical-align:top;">:</td><td><div>session_data_tutorplus</div></td></tr><tr><td style="font-weight:bold;vertical-align:top;">session_file</td><td style="vertical-align:top;">:</td><td><div>None</div></td></tr><tr><td style="font-weight:bold;vertical-align:top;">session_filename</td><td style="vertical-align:top;">:</td><td><div>C:\\Users\\Zhiyuan\\Desktop\\CMPS183\\web2py\\applications\\TutorPlus\\sessions\\127.0.0.1-1eb085bb-d108-4fa2-bbcb-c8eb199c20b9</div></td></tr><tr><td style="font-weight:bold;vertical-align:top;">session_hash</td><td style="vertical-align:top;">:</td><td><div>c0762cbf4baf7f9af97c051e7fcb8083</div></td></tr><tr><td style="font-weight:bold;vertical-align:top;">session_id</td><td style="vertical-align:top;">:</td><td><div>127.0.0.1-1eb085bb-d108-4fa2-bbcb-c8eb199c20b9</div></td></tr><tr><td style="font-weight:bold;vertical-align:top;">session_id_name</td><td style="vertical-align:top;">:</td><td><div>session_id_tutorplus</div></td></tr><tr><td style="font-weight:bold;vertical-align:top;">session_masterapp</td><td style="vertical-align:top;">:</td><td><div>TutorPlus</div></td></tr><tr><td style="font-weight:bold;vertical-align:top;">session_new</td><td style="vertical-align:top;">:</td><td><div>True</div></td></tr><tr><td style="font-weight:bold;vertical-align:top;">session_storage_type</td><td style="vertical-align:top;">:</td><td><div>file</div></td></tr><tr><td style="font-weight:bold;vertical-align:top;">show_toolbar</td><td style="vertical-align:top;">:</td><td><div>False</div></td></tr><tr><td style="font-weight:bold;vertical-align:top;">status</td><td style="vertical-align:top;">:</td><td><div>200</div></td></tr><tr><td style="font-weight:bold;vertical-align:top;">view</td><td style="vertical-align:top;">:</td><td><div>default/index.html</div></td></tr></table></div>'
tRp122
sS'locals'
p123
(dp124
S'PY2'
p125
S'True'
p126
sS'OBJECT'
p127
S"<class 'gluon.html.OBJECT'>"
p128
sS'SQLDB'
p129
S"<class 'pydal.base.DAL'>"
p130
sg115
S'<Storage {}>'
p131
sS'LINK'
p132
S"<class 'gluon.html.LINK'>"
p133
sS'FirebaseUser'
p134
S'<class __restricted__.FirebaseUser>'
p135
sS'local_import'
p136
S'<function <lambda>>'
p137
sS'OPTGROUP'
p138
S"<class 'gluon.html.OPTGROUP'>"
p139
sS'__package__'
p140
S'None'
p141
sS'PRE'
p142
S"<class 'gluon.html.PRE'>"
p143
sS'IS_INT_IN_RANGE'
p144
S"<class 'gluon.validators.IS_INT_IN_RANGE'>"
p145
sS'to_bytes'
p146
S'<function to_bytes>'
p147
sS'IS_LOWER'
p148
S"<class 'gluon.validators.IS_LOWER'>"
p149
sS'IS_STRONG'
p150
S"<class 'gluon.validators.IS_STRONG'>"
p151
sS'cache'
p152
S'<gluon.cache.Cache object>'
p153
sS'IS_IN_DB'
p154
S"<class 'gluon.validators.IS_IN_DB'>"
p155
sS'TAG'
p156
S'<gluon.html.__TAG__ object>'
p157
sS'SQLField'
p158
S"<class 'pydal.objects.Field'>"
p159
sS'BODY'
p160
S"<class 'gluon.html.BODY'>"
p161
sS'IS_DATE_IN_RANGE'
p162
S"<class 'gluon.validators.IS_DATE_IN_RANGE'>"
p163
sS'IFRAME'
p164
S"<class 'gluon.html.IFRAME'>"
p165
sS'URL'
p166
S'<function URL>'
p167
sS'__file__'
p168
S"r'C:\\Users\\Zhiyuan\\Desktop\\CMPS183\\web2py\\applications\\TutorPlus\\views\\default/index.html'"
p169
sS'db'
p170
S'<DAL uri="sqlite://storage.sqlite">'
p171
sS'firebase_admin'
p172
S"<module 'firebase_admin' from 'C:\\Python27\\lib\\site-packages\\firebase_admin\\__init__.pyc'>"
p173
sS'auth'
p174
S"<module 'firebase_admin.auth' from 'C:\\Python27\\lib\\site-packages\\firebase_admin\\auth.pyc'>"
p175
sS'P'
S"<class 'gluon.html.P'>"
p176
sS'TFOOT'
p177
S"<class 'gluon.html.TFOOT'>"
p178
sS'iteritems'
p179
S'<function <lambda>>'
p180
sS'credentials'
p181
S"<module 'firebase_admin.credentials' from 'C:\\Py...ib\\site-packages\\firebase_admin\\credentials.pyc'>"
p182
sS'XHTML'
p183
S"<class 'gluon.html.XHTML'>"
p184
sS'ON'
p185
g126
sS'OL'
p186
S"<class 'gluon.html.OL'>"
p187
sS'TEXTAREA'
p188
S"<class 'gluon.html.TEXTAREA'>"
p189
sS'MENU'
p190
S"<class 'gluon.html.MENU'>"
p191
sS'IS_IMAGE'
p192
S"<class 'gluon.validators.IS_IMAGE'>"
p193
sS'path'
p194
S"r'C:\\Users\\Zhiyuan\\Desktop\\CMPS183\\web2py\\applications\\TutorPlus\\private\\tutorPlusKey.json'"
p195
sS'EM'
p196
S"<class 'gluon.html.EM'>"
p197
sS'CODE'
p198
S"<class 'gluon.html.CODE'>"
p199
sS'HTTP'
p200
S"<class 'gluon.http.HTTP'>"
p201
sS'BR'
p202
S"<class 'gluon.html.BR'>"
p203
sS'HR'
p204
S"<class 'gluon.html.HR'>"
p205
sS'IS_DATETIME'
p206
S"<class 'gluon.validators.IS_DATETIME'>"
p207
sS'reduce'
p208
S'<built-in function reduce>'
p209
sS'STYLE'
p210
S"<class 'gluon.html.STYLE'>"
p211
sS'LABEL'
p212
S"<class 'gluon.html.LABEL'>"
p213
sS'CLEANUP'
p214
S"<class 'gluon.validators.CLEANUP'>"
p215
sS'SELECT'
p216
S"<class 'gluon.html.SELECT'>"
p217
sS'CENTER'
p218
S"<class 'gluon.html.CENTER'>"
p219
sS'__builtins__'
p220
S"{'ArithmeticError': <type 'exceptions.ArithmeticError'>, 'AssertionError': <type 'exceptions.AssertionError'>, 'AttributeError': <type 'exceptions.AttributeError'>, 'BaseException': <type 'exceptions.BaseException'>, 'BufferError': <type 'exceptions.BufferError'>, 'BytesWarning': <type 'exceptions.BytesWarning'>, 'DeprecationWarning': <type 'exceptions.DeprecationWarning'>, 'EOFError': <type 'exceptions.EOFError'>, 'Ellipsis': Ellipsis, 'EnvironmentError': <type 'exceptions.EnvironmentError'>, ...}"
p221
sS'HTML'
p222
S"<class 'gluon.html.HTML'>"
p223
sS'SQLFORM'
p224
S"<class 'gluon.sqlhtml.SQLFORM'>"
p225
sS'LOAD'
p226
S'<function LOAD>'
p227
sS'redirect'
p228
S'<function redirect>'
p229
sS'FIELDSET'
p230
S"<class 'gluon.html.FIELDSET'>"
p231
sS'IS_EQUAL_TO'
p232
S"<class 'gluon.validators.IS_EQUAL_TO'>"
p233
sS'embed64'
p234
S'<function embed64>'
p235
sS'IS_LIST_OF'
p236
S"<class 'gluon.validators.IS_LIST_OF'>"
p237
sS'INPUT'
p238
S"<class 'gluon.html.INPUT'>"
p239
sS'EMBED'
p240
S"<class 'gluon.html.EMBED'>"
p241
sS'configuration'
p242
S"{'host': {'names': 'localhost:*, 127.0.0.1:*, *:...': 'sqlite://storage.sqlite', 'pool_size': '10'}}"
p243
sS'H2'
p244
S"<class 'gluon.html.H2'>"
p245
sS'H3'
p246
S"<class 'gluon.html.H3'>"
p247
sS'AppConfig'
p248
S'<function AppConfig>'
p249
sS'H1'
p250
S"<class 'gluon.html.H1'>"
p251
sS'H6'
p252
S"<class 'gluon.html.H6'>"
p253
sS'H4'
p254
S"<class 'gluon.html.H4'>"
p255
sS'H5'
p256
S"<class 'gluon.html.H5'>"
p257
sS'UL'
p258
S"<class 'gluon.html.UL'>"
p259
sS'IS_UPPER'
p260
S"<class 'gluon.validators.IS_UPPER'>"
p261
sS'xmlescape'
p262
S'<function xmlescape>'
p263
sS'IS_TIME'
p264
S"<class 'gluon.validators.IS_TIME'>"
p265
sS'os'
p266
S"<module 'os' from 'C:\\Users\\Zhiyuan\\Desktop\\CMPS183\\web2py\\library.zip\\os.pyc'>"
p267
sS'OPTION'
p268
S"<class 'gluon.html.OPTION'>"
p269
sS'TITLE'
p270
S"<class 'gluon.html.TITLE'>"
p271
sS'CRYPT'
p272
S"<class 'gluon.validators.CRYPT'>"
p273
sS'IS_EMPTY_OR'
p274
S"<class 'gluon.validators.IS_EMPTY_OR'>"
p275
sS'MARKMIN'
p276
S"<class 'gluon.html.MARKMIN'>"
p277
sS'__name__'
p278
S"'__restricted__'"
p279
sS'STRONG'
p280
S"<class 'gluon.html.STRONG'>"
p281
sS'COL'
p282
S"<class 'gluon.html.COL'>"
p283
sS'SCRIPT'
p284
S"<class 'gluon.html.SCRIPT'>"
p285
sS'TABLE'
p286
S"<class 'gluon.html.TABLE'>"
p287
sS'IS_IPV4'
p288
S"<class 'gluon.validators.IS_IPV4'>"
p289
sS'IS_LENGTH'
p290
S"<class 'gluon.validators.IS_LENGTH'>"
p291
sS'IS_IPV6'
p292
S"<class 'gluon.validators.IS_IPV6'>"
p293
sS'XML'
p294
S"<class 'gluon.html.XML'>"
p295
sS'B'
S"<class 'gluon.html.B'>"
p296
sS'IMG'
p297
S"<class 'gluon.html.IMG'>"
p298
sS'SQLTABLE'
p299
S"<class 'gluon.sqlhtml.SQLTABLE'>"
p300
sS'IS_MATCH'
p301
S"<class 'gluon.validators.IS_MATCH'>"
p302
sS'IS_ALPHANUMERIC'
p303
S"<class 'gluon.validators.IS_ALPHANUMERIC'>"
p304
sS'_app'
p305
S"'TutorPlus'"
p306
sS'SPAN'
p307
S"<class 'gluon.html.SPAN'>"
p308
sS'IS_JSON'
p309
S"<class 'gluon.validators.IS_JSON'>"
p310
sS'IS_IPADDRESS'
p311
S"<class 'gluon.validators.IS_IPADDRESS'>"
p312
sS'IS_SLUG'
p313
S"<class 'gluon.validators.IS_SLUG'>"
p314
sS'BEAUTIFY'
p315
S"<class 'gluon.html.BEAUTIFY'>"
p316
sS'META'
p317
S"<class 'gluon.html.META'>"
p318
sS'BUTTON'
p319
S"<class 'gluon.html.BUTTON'>"
p320
sS'IS_DATE'
p321
S"<class 'gluon.validators.IS_DATE'>"
p322
sS'IS_EMAIL'
p323
S"<class 'gluon.validators.IS_EMAIL'>"
p324
sS'IS_NOT_EMPTY'
p325
S"<class 'gluon.validators.IS_NOT_EMPTY'>"
p326
sS'xrange'
p327
S"<type 'xrange'>"
p328
sS'TBODY'
p329
S"<class 'gluon.html.TBODY'>"
p330
sS'CAT'
p331
S"<class 'gluon.html.CAT'>"
p332
sS'Field'
p333
S"<class 'pydal.objects.Field'>"
p334
sS'IS_LIST_OF_EMAILS'
p335
S"<class 'gluon.validators.IS_LIST_OF_EMAILS'>"
p336
sg58
S"<Storage {'function': 'index', 'cookies': <Simpl...False, 'is_https': False, 'client': '127.0.0.1'}>"
p337
sS'DIV'
p338
S"<class 'gluon.html.DIV'>"
p339
sS'LEGEND'
p340
S"<class 'gluon.html.LEGEND'>"
p341
sS'to_native'
p342
S'<function to_native>'
p343
sS'COLGROUP'
p344
S"<class 'gluon.html.COLGROUP'>"
p345
sS'DAL'
p346
S"<class 'pydal.base.DAL'>"
p347
sS'ASSIGNJS'
p348
S'<function ASSIGNJS>'
p349
sS'TR'
p350
S"<class 'gluon.html.TR'>"
p351
sS'LI'
p352
S"<class 'gluon.html.LI'>"
p353
sS'TH'
p354
S"<class 'gluon.html.TH'>"
p355
sS'TD'
p356
S"<class 'gluon.html.TD'>"
p357
sS'IS_URL'
p358
S"<class 'gluon.validators.IS_URL'>"
p359
sS'A'
S"<class 'gluon.html.A'>"
p360
sS'HEAD'
p361
S"<class 'gluon.html.HEAD'>"
p362
sS'IS_DATETIME_IN_RANGE'
p363
S"<class 'gluon.validators.IS_DATETIME_IN_RANGE'>"
p364
sS'FORM'
p365
S"<class 'gluon.html.FORM'>"
p366
sS'I'
S"<class 'gluon.html.I'>"
p367
sS'IS_NOT_IN_DB'
p368
S"<class 'gluon.validators.IS_NOT_IN_DB'>"
p369
sS'user'
p370
S'<__restricted__.FirebaseUser instance>'
p371
sg121
S"<Storage {'body': <cStringIO.StringO object at 0...a> at 0x0945BD30>, 'view': 'default/index.html'}>"
p372
sS'THEAD'
p373
S"<class 'gluon.html.THEAD'>"
p374
sS'ANY_OF'
p375
S"<class 'gluon.validators.ANY_OF'>"
p376
sS'IS_NULL_OR'
p377
S"<class 'gluon.validators.IS_EMPTY_OR'>"
p378
sS'IS_FLOAT_IN_RANGE'
p379
S"<class 'gluon.validators.IS_FLOAT_IN_RANGE'>"
p380
sS'IS_EXPR'
p381
S"<class 'gluon.validators.IS_EXPR'>"
p382
sS'T'
S'<gluon.languages.translator object>'
p383
sS'IS_IN_SET'
p384
S"<class 'gluon.validators.IS_IN_SET'>"
p385
sS'IS_UPLOAD_FILENAME'
p386
S"<class 'gluon.validators.IS_UPLOAD_FILENAME'>"
p387
sS'TT'
p388
S"<class 'gluon.html.TT'>"
p389
sS'firestore'
p390
S"<module 'firebase_admin.firestore' from 'C:\\Pyth...\\lib\\site-packages\\firebase_admin\\firestore.pyc'>"
p391
sS'IS_DECIMAL_IN_RANGE'
p392
S"<class 'gluon.validators.IS_DECIMAL_IN_RANGE'>"
p393
sssS'traceback'
p394
S'Traceback (most recent call last):\n  File "C:\\Users\\Zhiyuan\\Desktop\\CMPS183\\web2py\\gluon\\restricted.py", line 219, in restricted\n    exec(ccode, environment)\n  File "C:\\Users\\Zhiyuan\\Desktop\\CMPS183\\web2py\\applications\\TutorPlus\\views\\default/index.html", line 74, in <module>\nNameError: name \'lorem\' is not defined\n'
p395
s.