(dp1
S'output'
p2
S"<type 'exceptions.NameError'> name 'get_profile_url' is not defined"
p3
sS'layer'
p4
S'C:\\Users\\zjylh\\Desktop\\TutorPlus-Web\\TutorPlusWeb\\web2py\\applications\\TutorPlus\\views\\default/index.html'
p5
sS'code'
p6
S'response.write(\'<!DOCTYPE html>\\r\\n<html lang="en">\\r\\n\\r\\n<head>\\r\\n\\t<title>TutorPlus</title>\\r\\n\\t<meta charset="UTF-8">\\r\\n\\t<meta name="viewport" content="width=device-width, initial-scale=1">\\r\\n\\r\\n\\t<!--========================================Login-CSS==================================================-->\\r\\n\\t<!--===============================================================================================-->\\r\\n\\t<link rel="icon" type="image/png" href="\', escape=False)\nresponse.write(URL(\'static\',\'images/icons/favicon.ico\'))\nresponse.write(\'">\\r\\n\\t<!-- <link rel="stylesheet" type="text/css" href="\', escape=False)\nresponse.write(URL(\'static\',\'vendor/bootstrap/css/bootstrap.min.css\'))\nresponse.write(\'">-->\\r\\n\\t<link rel="stylesheet" type="text/css" href="\', escape=False)\nresponse.write(URL(\'static\',\'fonts/font-awesome-4.7.0/css/font-awesome.min.css\'))\nresponse.write(\'">\\r\\n\\t<link rel="stylesheet" type="text/css" href="\', escape=False)\nresponse.write(URL(\'static\',\'fonts/iconic/css/material-design-iconic-font.min.css\'))\nresponse.write(\'">\\r\\n\\t<link rel="stylesheet" type="text/css" href="\', escape=False)\nresponse.write(URL(\'static\',\'vendor/animate/animate.css\'))\nresponse.write(\'">\\r\\n\\t<link rel="stylesheet" type="text/css" href="\', escape=False)\nresponse.write(URL(\'static\',\'vendor/css-hamburgers/hamburgers.min.css\'))\nresponse.write(\'">\\r\\n\\t<link rel="stylesheet" type="text/css" href="\', escape=False)\nresponse.write(URL(\'static\',\'vendor/animsition/css/animsition.min.css\'))\nresponse.write(\'">\\r\\n\\t<link rel="stylesheet" type="text/css" href="\', escape=False)\nresponse.write(URL(\'static\',\'vendor/select2/select2.min.css\'))\nresponse.write(\'">\\r\\n\\t<link rel="stylesheet" type="text/css" href="\', escape=False)\nresponse.write(URL(\'static\',\'vendor/daterangepicker/daterangepicker.css\'))\nresponse.write(\'">\\r\\n\\t<link rel="stylesheet" type="text/css" href="\', escape=False)\nresponse.write(URL(\'static\',\'css/util.css\'))\nresponse.write(\'">\\r\\n\\t<link href=\\\'https://fonts.googleapis.com/css?family=Roboto:100,300,400,500,700,900|Material+Icons\\\' rel="stylesheet">\\r\\n\\t<link href="https://cdn.jsdelivr.net/npm/vuetify/dist/vuetify.min.css" rel="stylesheet">\\r\\n\\t<!--===============================================================================================-->\\r\\n\\r\\n\\r\\n\\t<!--========================================Login-CSS-JS==================================================-->\\r\\n\\t<!--===============================================================================================-->\\r\\n\\t<script src="\', escape=False)\nresponse.write(URL(\'static\',\'vendor/jquery/jquery-3.2.1.min.js\'))\nresponse.write(\'"></script>\\r\\n\\t<script src="\', escape=False)\nresponse.write(URL(\'static\',\'vendor/animsition/js/animsition.min.js\'))\nresponse.write(\'"></script>\\r\\n\\t<script src="\', escape=False)\nresponse.write(URL(\'static\',\'vendor/bootstrap/js/popper.js\'))\nresponse.write(\'"></script>\\r\\n\\t<script src="\', escape=False)\nresponse.write(URL(\'static\',\'vendor/bootstrap/js/bootstrap.min.js\'))\nresponse.write(\'"></script>\\r\\n    <script src="\', escape=False)\nresponse.write(URL(\'static\',\'vendor/select2/select2.min.js\'))\nresponse.write(\'"></script>\\r\\n    <script src="\', escape=False)\nresponse.write(URL(\'static\',\'vendor/daterangepicker/moment.min.js\'))\nresponse.write(\'"></script>\\r\\n    <script src="\', escape=False)\nresponse.write(URL(\'static\',\'vendor/daterangepicker/daterangepicker.js\'))\nresponse.write(\'"></script>\\r\\n\\t<script src="\', escape=False)\nresponse.write(URL(\'static\',\'vendor/countdowntime/countdowntime.js\'))\nresponse.write(\'"></script>\\r\\n\\t<!--===============================================================================================-->\\r\\n\\r\\n\\r\\n\\t<!--========================================Profile-Page-CSS-JS==================================================-->\\r\\n\\t<!--===============================================================================================-->\\r\\n\\t<!-- Font special for pages-->\\r\\n\\t<link href="https://fonts.googleapis.com/css?family=Roboto:100,100i,300,300i,400,400i,500,500i,700,700i,900,900i" rel="stylesheet">\\r\\n\\r\\n\\r\\n\\t<!-- Main CSS-->\\r\\n\\t<link rel="stylesheet" href="\', escape=False)\nresponse.write(URL(\'static\', \'css/userProfile.css\'))\nresponse.write(\'">\\r\\n\\t<!--===============================================================================================-->\\r\\n\\r\\n\\r\\n\\t<!--========================================Main-CSS==================================================-->\\r\\n\\t<!--===============================================================================================-->\\r\\n\\t<link rel="stylesheet" type="text/css" href="\', escape=False)\nresponse.write(URL(\'static\',\'css/index.css\'))\nresponse.write(\'">\\r\\n\\t<link rel="stylesheet" type="text/css" href="\', escape=False)\nresponse.write(URL(\'static\',\'css/main.css\'))\nresponse.write(\'">\\r\\n\\t<!--===============================================================================================-->\\r\\n\\r\\n\\r\\n\\t<!--==========================================JS=============================================-->\\r\\n\\t<!--===============================================================================================-->\\r\\n\\t<!--<script src="\', escape=False)\nresponse.write(URL(\'static\',\'js/main.js\'))\nresponse.write(\'"></script>-->\\r\\n\\t<script src="\', escape=False)\nresponse.write(URL(\'static\', \'js/vue.js\'))\nresponse.write(\'"></script>\\r\\n\\t<script src="https://unpkg.com/vue@latest"></script>\\r\\n\\t<!--<script src="https://unpkg.com/vue-select@latest"></script>-->\\r\\n\\t<script src="https://cdn.jsdelivr.net/npm/vuetify/dist/vuetify.js"></script>\\r\\n\\t<script src="\', escape=False)\nresponse.write(URL(\'static\',\'js/vue-resource.js\'))\nresponse.write(\'"></script>\\r\\n\\t<!--===============================================================================================-->\\r\\n\\r\\n\\t<!--==========================================Other=============================================-->\\r\\n\\t<!--===============================================================================================-->\\r\\n\\t\', escape=False)\nresponse.write(\'<script type="text/javascript"><!--\\r\\n    // These variables are used by the web2py_ajax_init function in web2py_ajax.js (which is loaded below).\\r\\n    \', escape=False)\nresponse.write(ASSIGNJS(\nw2p_ajax_confirm_message = T(\'Are you sure you want to delete this object?\'),\nw2p_ajax_disable_with_message = T(\'Working...\'),\nw2p_ajax_date_format = T(\'%Y-%m-%d\'),\nw2p_ajax_datetime_format = T(\'%Y-%m-%d %H:%M:%S\'),\najax_error_500 = T.M(\'An error occured, please [[reload %s]] the page\') % URL(args=request.args, vars=request.get_vars)\n))\nresponse.write(\'\\r\\n    //--></script>\\r\\n\', escape=False)\nresponse.files.insert(0,URL(\'static\',\'js/jquery.js\'))\nresponse.files.insert(1,URL(\'static\',\'css/calendar.css\'))\nresponse.files.insert(2,URL(\'static\',\'js/calendar.js\'))\nresponse.files.insert(3,URL(\'static\',\'js/web2py.js\'))\nresponse.include_meta()\nresponse.include_files()\nresponse.write(\'\\r\\n\', escape=False)\nresponse.write(\'\\r\\n\\t<!--===============================================================================================-->\\r\\n\\r\\n\\t<!--==========================================MessageBox-Modal======================================-->\\r\\n\\t<!--===============================================================================================-->\\r\\n\\t<script type="text/x-template" id="modal-template">\\r\\n\\t\\t<transition name="modal">\\r\\n    <div class="modal-mask">\\r\\n      <div class="modal-wrapper">\\r\\n        <div class="modal-container">\\r\\n          <div class="modal-header">\\r\\n            <slot name="header">\\r\\n              Error\\r\\n            </slot>\\r\\n          </div>\\r\\n          <div class="modal-body">\\r\\n            <slot name="body">\\r\\n              default body\\r\\n            </slot>\\r\\n          </div>\\r\\n          <div class="modal-footer">\\r\\n            <slot name="footer">\\r\\n              <button class=".modal-default-button" @click="$emit(\\\'close\\\')">\\r\\n                OK\\r\\n              </button>\\r\\n            </slot>\\r\\n          </div>\\r\\n        </div>\\r\\n      </div>\\r\\n    </div>\\r\\n  </transition>\\r\\n</script>\\r\\n\\t<!--===============================================================================================-->\\r\\n\\r\\n\\r\\n\\t<!--==========================================Firebase=============================================-->\\r\\n\\t<!--===============================================================================================-->\\r\\n\\t<script src="https://www.gstatic.com/firebasejs/5.5.7/firebase.js"></script>\\r\\n\\t<script>\\r\\n\\t\\t// Initialize Firebase\\r\\n\\t\\tvar config = {\\r\\n\\t\\t\\tapiKey: "AIzaSyDWW9aZzAPulRzPU6i_23OdAx0jXPwJRVk",\\r\\n\\t\\t\\tauthDomain: "tutorplus-93a0f.firebaseapp.com",\\r\\n\\t\\t\\tdatabaseURL: "https://tutorplus-93a0f.firebaseio.com",\\r\\n\\t\\t\\tprojectId: "tutorplus-93a0f",\\r\\n\\t\\t\\tstorageBucket: "tutorplus-93a0f.appspot.com",\\r\\n\\t\\t\\tmessagingSenderId: "690236283457"\\r\\n\\t\\t};\\r\\n\\t\\tfirebase.initializeApp(config);\\r\\n\\t</script>\\r\\n\\t<!--===============================================================================================-->\\r\\n</head>\\r\\n\\r\\n<!--============================================Main==============================================-->\\r\\n<!--===============================================================================================-->\\r\\n\\r\\n<body>\\r\\n\\t\', escape=False)\nresponse.write(\'\\r\\n\', escape=False)\nresponse.write(\'\\r\\n<!--========================================Backend-URL==================================================-->\\r\\n\\t<!--===============================================================================================-->\\r\\n<script>\\r\\n    let get_profile_url = "\', escape=False)\nresponse.write(URL(\'api\', \'get_profile\'))\nresponse.write(\'";\\r\\n</script>\\r\\n\', escape=False)\nresponse.write(\'\\r\\n<!--========================================Front-end==================================================-->\\r\\n\\t<!--===============================================================================================-->\\r\\n<!--\\r\\n<html>\\r\\n    <body>-->\\r\\n<div id="vue-index">\\r\\n  <v-app>\\r\\n  <!----------------------------------- login part -------------------------------->\\r\\n  <!--login_idx is used to control display: LOGIN, SIGNUP-->\\r\\n  <div id="login_part" v-show="!logged_in">\\r\\n\\r\\n    <!---login--->\\r\\n    <span v-show="login_idx === \\\'LOGIN\\\'">\\r\\n      <div class="limiter">\\r\\n        <div class="container-login100">\\r\\n          <div class="wrap-login100 p-t-85 p-b-20">\\r\\n\\r\\n            <div class="login100-form validate-form" id="login_div">\\r\\n\\r\\n              <img src="\', escape=False)\nresponse.write(URL(\'static\',\'images/Logo.png\'))\nresponse.write(\'" align="middle">\\r\\n\\r\\n              <div class="wrap-input100 validate-input m-t-85 m-b-35" data-validate="Enter username">\\r\\n                <input class="input100" type="text" name="username" id="username_field">\\r\\n                <span class="focus-input100" data-placeholder="Email"></span>\\r\\n              </div>\\r\\n\\r\\n              <div class="wrap-input100 validate-input m-b-50" data-validate="Enter password">\\r\\n                <input class="input100" type="password" name="password" id="password_field">\\r\\n                <span class="focus-input100" data-placeholder="Password"></span>\\r\\n              </div>\\r\\n\\r\\n              <div class="container-login100-form-btn">\\r\\n                <button v-on:click="login()" class="login100-form-btn">Login</button>\\r\\n              </div>\\r\\n\\r\\n              <ul class="login-more p-t-190">\\r\\n                <li>\\r\\n                  <span class="txt1">\\r\\n                    Don\\xe2\\x80\\x99t have an account?\\r\\n                  </span>\\r\\n\\r\\n                  <a href="javascript:void(0)" v-on:click="login_idx = \\\'SIGNUP\\\'" class="txt2">\\r\\n                    Sign up\\r\\n                  </a>\\r\\n                </li>\\r\\n              </ul>\\r\\n            </div>\\r\\n          </div>\\r\\n        </div>\\r\\n      </div>\\r\\n    </span>\\r\\n\\r\\n\\r\\n    <!---signup--->\\r\\n    <span v-show="login_idx === \\\'SIGNUP\\\'">\\r\\n      <div class="limiter">\\r\\n        <div class="container-login100">\\r\\n          <div class="wrap-login100 p-t-85 p-b-20">\\r\\n\\r\\n            <div class="login100-form validate-form" id="login_div">\\r\\n\\r\\n              <img src="\', escape=False)\nresponse.write(URL(\'static\',\'images/Logo.png\'))\nresponse.write(\'" align="middle">\\r\\n\\r\\n              <div class="wrap-input100 validate-input m-t-85 m-b-35" data-validate="Enter username">\\r\\n                <input class="input100" type="text" name="username-signup" id="username_signup_field">\\r\\n                <span class="focus-input100" data-placeholder="Email"></span>\\r\\n              </div>\\r\\n\\r\\n              <div class="wrap-input100 validate-input m-b-50" data-validate="Enter password">\\r\\n                <input class="input100" type="password" name="password-signup" id="password_signup_field">\\r\\n                <span class="focus-input100" data-placeholder="Password"></span>\\r\\n              </div>\\r\\n\\r\\n              <div class="wrap-input100 validate-input m-b-50" data-validate="Enter password">\\r\\n                <input class="input100" type="password" name="re-password" id="re-password_signup_field">\\r\\n                <span class="focus-input100" data-placeholder="Re-Password"></span>\\r\\n              </div>\\r\\n\\r\\n              <div class="container-login50-form-btn">\\r\\n                <button v-on:click="signup()" class="login50-form-btn">Signup</button>\\r\\n                <button v-on:click="login_idx = \\\'LOGIN\\\'" class="login50-form-btn">Return</button>\\r\\n              </div>\\r\\n            </div>\\r\\n          </div>\\r\\n        </div>\\r\\n      </div>\\r\\n    </span>\\r\\n\\r\\n    <!---messageBox--->\\r\\n    <modal v-show="is_login_messagebox_show" @close="is_login_messagebox_show = false">\\r\\n      <h3 slot="body">${ login_message }</h3>\\r\\n      <h3 slot="header">Login error</h3>\\r\\n    </modal>\\r\\n  </div>\\r\\n  <!------------------------------------------------------------------------------->\\r\\n\\r\\n\\r\\n  <!------------------------------------ main part -------------------------------->\\r\\n  <div id="main_part" v-show="logged_in">\\r\\n    <aside>\\r\\n      <figure>\\r\\n        <div id="avatar"></div>\\r\\n        <figcaption>${profile_name}</figcaption>\\r\\n      </figure>\\r\\n      <nav>\\r\\n        <ul>\\r\\n          <li><a href="javascript:void(0)" v-on:click="main_idx = \\\'HOME\\\'">Home</a></li>\\r\\n          <li><a href="javascript:void(0)" v-on:click="main_idx = \\\'SEARCH\\\'">Search</a></li>\\r\\n          <li><a href="javascript:void(0)" v-on:click="main_idx = \\\'PROFILE\\\'">Profile</a></li>\\r\\n          <li><a href="javascript:void(0)" v-on:click="main_idx = \\\'RESULT\\\'">Result</a></li>\\r\\n        </ul>\\r\\n      </nav>\\r\\n    </aside>\\r\\n\\r\\n    <main>\\r\\n      <!--========================================HOME==================================================-->\\r\\n\\t<!--===============================================================================================-->\\r\\n      <div v-show="main_idx === \\\'HOME\\\'">\\r\\n        <h1>Welcome to Tutor+</h1>\\r\\n        <p>Tutor+ is a right place to find your ideal tutor!</p>\\r\\n        <a href="javascript:void(0)" v-on:click="main_idx = \\\'SEARCH\\\'" class="cta">Do Search Now</a>\\r\\n        <button v-on:click="logout()">logout</button>\\r\\n      </div>\\r\\n      <!--========================================SEARCH==================================================-->\\r\\n\\t<!--===============================================================================================-->\\r\\n      <div v-show="main_idx === \\\'SEARCH\\\'">\\r\\n        Search page\\r\\n\\r\\n      </div>\\r\\n      <!--========================================PROFILE==================================================-->\\r\\n\\t<!--===============================================================================================-->\\r\\n      <div v-show="main_idx === \\\'PROFILE\\\'">\\r\\n\\r\\n        <div class="wrapper wrapper--w680">\\r\\n        <div class="card card-1">\\r\\n\\r\\n            <div class="card-heading"></div>\\r\\n            <div class="card-body">\\r\\n\\r\\n              <div v-if="!become_a_TA">\\r\\n                <h2 class="title">Update your Profile</h2>\\r\\n\\r\\n                <div>\\r\\n                  <v-flex xs12 sm6>\\r\\n                    <v-text-field\\r\\n                      v-bind:value="profile_email"\\r\\n                      label="Email"\\r\\n                      disabled\\r\\n                    ></v-text-field>\\r\\n                  </v-flex>\\r\\n                </div>\\r\\n\\r\\n                <div>\\r\\n                  <v-flex xs12 sm6>\\r\\n                    <v-text-field v-model="profile_name" label="Name"></v-text-field>\\r\\n                  </v-flex>\\r\\n                </div>\\r\\n\\r\\n                <div>\\r\\n                  <v-autocomplete v-model="profile_university" :items="school_list" :label="`University`" clearable>\\r\\n                    <v-slide-x-reverse-transition slot="append-outer" mode="out-in">\\r\\n                    </v-slide-x-reverse-transition>\\r\\n                  </v-autocomplete>\\r\\n                </div>\\r\\n\\r\\n                <div>\\r\\n                  <v-flex xs12 sm6>\\r\\n                    <v-autocomplete v-model="profile_major" :items="profile_major_list" :label="`Major`" clearable>\\r\\n                      <v-slide-x-reverse-transition slot="append-outer" mode="out-in">\\r\\n                      </v-slide-x-reverse-transition>\\r\\n                    </v-autocomplete>\\r\\n                    <!--<v-text-field v-model="profile_major" label="Major"></v-text-field>-->\\r\\n                  </v-flex>\\r\\n                </div>\\r\\n\\r\\n                <div>\\r\\n                  <v-flex xs12 sm6 md3>\\r\\n                  <v-autocomplete v-model="profile_gender" :items="[\\\'Male\\\',\\\'Female\\\']" :label="`Gender`">\\r\\n                    <v-slide-x-reverse-transition slot="append-outer" mode="out-in">\\r\\n                    </v-slide-x-reverse-transition>\\r\\n                  </v-autocomplete>\\r\\n                  </v-flex>\\r\\n                </div>\\r\\n\\r\\n                <v-textarea\\r\\n                  v-model="profile_personal_statement"\\r\\n                  color="teal"\\r\\n                  placeholder="Talk about yourself..."\\r\\n                  style="margin-top:45px; margin-bottom:25px"\\r\\n                >\\r\\n                  <div slot="label">\\r\\n                    Personal Statment <small></small>\\r\\n                  </div>\\r\\n                </v-textarea>\\r\\n\\r\\n\\r\\n                <v-layout row wrap>\\r\\n                  <div class="p-t-20" style="margin-right:15px">\\r\\n                    <button class="btn btn--radius btn--green" v-on:click="updateProfile()">Update</button>\\r\\n                  </div>\\r\\n                  <div class="p-t-20">\\r\\n                    <button class="btn btn--radius btn--green" v-on:click="become_a_TA=true">Become a Tutor!</button>\\r\\n                  </div>\\r\\n                </v-layout>\\r\\n\\r\\n              </div>\\r\\n\\r\\n              <div v-if="become_a_TA">\\r\\n                <h2 class="title">Update your Profile</h2>\\r\\n\\r\\n\\r\\n                <ta-course-card\\r\\n                  v-for="TutorCard in tutor_card_list"\\r\\n                  v-bind:card="TutorCard"\\r\\n                  v-bind:school_list="school_list"\\r\\n                  v-bind:school_data="school_data">\\r\\n                </ta-course-card>\\r\\n\\r\\n                <i class="fa fa-plus-circle" style="font-size:30px" v-on:click="newTutorCard()"></i>\\r\\n\\r\\n                <v-layout row wrap>\\r\\n                  <div class="p-t-20" style="margin-right:15px">\\r\\n                    <button class="btn btn--radius btn--green" v-on:click="updateTutorProfile()">Update</button>\\r\\n                  </div>\\r\\n                  <div class="p-t-20">\\r\\n                    <button class="btn btn--radius btn--green" v-on:click="become_a_TA=false">Back To You Personal Profile</button>\\r\\n                  </div>\\r\\n                </v-layout>\\r\\n\\r\\n              </div>\\r\\n\\r\\n            </div>\\r\\n\\r\\n        </div>\\r\\n        </div>\\r\\n\\r\\n\\r\\n\\r\\n\\r\\n      </div>\\r\\n\\r\\n\\r\\n      <!--========================================RESULT==================================================-->\\r\\n\\t<!--===============================================================================================-->\\r\\n      <div v-show="main_idx === \\\'RESULT\\\'">\\r\\n      \', escape=False)\nget_profile_url\nresponse.write(\'\\r\\n      </div>\\r\\n\\r\\n    </main>\\r\\n  </div>\\r\\n  <!------------------------------------------------------------------------------->\\r\\n</v-app>\\r\\n</div>\\r\\n\\r\\n\\r\\n\\r\\n<!-- Main JS-->\\r\\n<script src="\', escape=False)\nresponse.write(URL(\'static\', \'js/default_index.js\'))\nresponse.write(\'"></script>\\r\\n\\r\\n<!--\\r\\n</body>\\r\\n</html>-->\\r\\n\', escape=False)\nresponse.write(\'\\r\\n</body>\\r\\n\\r\\n</html>\\r\\n\\r\\n<!--===============================================================================================-->\\r\\n\', escape=False)'
p7
sS'snapshot'
p8
(dp9
S'exception'
p10
(dp11
S'__getslice__'
p12
S"<method-wrapper '__getslice__' of exceptions.NameError object>"
p13
sS'__str__'
p14
S"<method-wrapper '__str__' of exceptions.NameError object>"
p15
sS'__reduce__'
p16
S'<built-in method __reduce__ of exceptions.NameError object>'
p17
sS'__dict__'
p18
S'{}'
p19
sS'message'
p20
S'"name \'get_profile_url\' is not defined"'
p21
sS'__sizeof__'
p22
S'<built-in method __sizeof__ of exceptions.NameError object>'
p23
sS'__init__'
p24
S"<method-wrapper '__init__' of exceptions.NameError object>"
p25
sS'__setattr__'
p26
S"<method-wrapper '__setattr__' of exceptions.NameError object>"
p27
sS'__reduce_ex__'
p28
S'<built-in method __reduce_ex__ of exceptions.NameError object>'
p29
sS'__new__'
p30
S'<built-in method __new__ of type object>'
p31
sS'__format__'
p32
S'<built-in method __format__ of exceptions.NameError object>'
p33
sS'__class__'
p34
S"<type 'exceptions.NameError'>"
p35
sS'__doc__'
p36
S"'Name not found globally.'"
p37
sS'__getitem__'
p38
S"<method-wrapper '__getitem__' of exceptions.NameError object>"
p39
sS'__setstate__'
p40
S'<built-in method __setstate__ of exceptions.NameError object>'
p41
sS'__getattribute__'
p42
S"<method-wrapper '__getattribute__' of exceptions.NameError object>"
p43
sS'args'
p44
S'("name \'get_profile_url\' is not defined",)'
p45
sS'__subclasshook__'
p46
S'<built-in method __subclasshook__ of type object>'
p47
sS'__unicode__'
p48
S'<built-in method __unicode__ of exceptions.NameError object>'
p49
sS'__delattr__'
p50
S"<method-wrapper '__delattr__' of exceptions.NameError object>"
p51
sS'__repr__'
p52
S"<method-wrapper '__repr__' of exceptions.NameError object>"
p53
sS'__hash__'
p54
S"<method-wrapper '__hash__' of exceptions.NameError object>"
p55
ssS'evalue'
p56
S"name 'get_profile_url' is not defined"
p57
sS'request'
p58
cgluon.html
XML_unpickle
p59
(S's!j\x00\x00<div><table><tr><td style="font-weight:bold;vertical-align:top;">ajax</td><td style="vertical-align:top;">:</td><td><div>False</div></td></tr><tr><td style="font-weight:bold;vertical-align:top;">application</td><td style="vertical-align:top;">:</td><td><div>TutorPlus</div></td></tr><tr><td style="font-weight:bold;vertical-align:top;">args</td><td style="vertical-align:top;">:</td><td><div><table></table></div></td></tr><tr><td style="font-weight:bold;vertical-align:top;">cid</td><td style="vertical-align:top;">:</td><td><div>None</div></td></tr><tr><td style="font-weight:bold;vertical-align:top;">client</td><td style="vertical-align:top;">:</td><td><div>127.0.0.1</div></td></tr><tr><td style="font-weight:bold;vertical-align:top;">controller</td><td style="vertical-align:top;">:</td><td><div>default</div></td></tr><tr><td style="font-weight:bold;vertical-align:top;">cookies</td><td style="vertical-align:top;">:</td><td><div><table><tr><td style="font-weight:bold;vertical-align:top;">session_id_admin</td><td style="vertical-align:top;">:</td><td><div>127.0.0.1-c93253e7-aa28-404e-9bbf-809ca003cc85<table><tr><td style="font-weight:bold;vertical-align:top;">comment</td><td style="vertical-align:top;">:</td><td><div></div></td></tr><tr><td style="font-weight:bold;vertical-align:top;">domain</td><td style="vertical-align:top;">:</td><td><div></div></td></tr><tr><td style="font-weight:bold;vertical-align:top;">expires</td><td style="vertical-align:top;">:</td><td><div></div></td></tr><tr><td style="font-weight:bold;vertical-align:top;">httponly</td><td style="vertical-align:top;">:</td><td><div></div></td></tr><tr><td style="font-weight:bold;vertical-align:top;">max-age</td><td style="vertical-align:top;">:</td><td><div></div></td></tr><tr><td style="font-weight:bold;vertical-align:top;">path</td><td style="vertical-align:top;">:</td><td><div></div></td></tr><tr><td style="font-weight:bold;vertical-align:top;">samesite</td><td style="vertical-align:top;">:</td><td><div></div></td></tr><tr><td style="font-weight:bold;vertical-align:top;">secure</td><td style="vertical-align:top;">:</td><td><div></div></td></tr><tr><td style="font-weight:bold;vertical-align:top;">version</td><td style="vertical-align:top;">:</td><td><div></div></td></tr></table></div></td></tr><tr><td style="font-weight:bold;vertical-align:top;">session_id_hw3</td><td style="vertical-align:top;">:</td><td><div>3:ac261a65-08f1-48e5-9d78-c2c71eb19157<table><tr><td style="font-weight:bold;vertical-align:top;">comment</td><td style="vertical-align:top;">:</td><td><div></div></td></tr><tr><td style="font-weight:bold;vertical-align:top;">domain</td><td style="vertical-align:top;">:</td><td><div></div></td></tr><tr><td style="font-weight:bold;vertical-align:top;">expires</td><td style="vertical-align:top;">:</td><td><div></div></td></tr><tr><td style="font-weight:bold;vertical-align:top;">httponly</td><td style="vertical-align:top;">:</td><td><div></div></td></tr><tr><td style="font-weight:bold;vertical-align:top;">max-age</td><td style="vertical-align:top;">:</td><td><div></div></td></tr><tr><td style="font-weight:bold;vertical-align:top;">path</td><td style="vertical-align:top;">:</td><td><div></div></td></tr><tr><td style="font-weight:bold;vertical-align:top;">samesite</td><td style="vertical-align:top;">:</td><td><div></div></td></tr><tr><td style="font-weight:bold;vertical-align:top;">secure</td><td style="vertical-align:top;">:</td><td><div></div></td></tr><tr><td style="font-weight:bold;vertical-align:top;">version</td><td style="vertical-align:top;">:</td><td><div></div></td></tr></table></div></td></tr><tr><td style="font-weight:bold;vertical-align:top;">session_id_tutorplus</td><td style="vertical-align:top;">:</td><td><div>127.0.0.1-04943e79-9895-4e54-8d14-83f078eb1fb0<table><tr><td style="font-weight:bold;vertical-align:top;">comment</td><td style="vertical-align:top;">:</td><td><div></div></td></tr><tr><td style="font-weight:bold;vertical-align:top;">domain</td><td style="vertical-align:top;">:</td><td><div></div></td></tr><tr><td style="font-weight:bold;vertical-align:top;">expires</td><td style="vertical-align:top;">:</td><td><div></div></td></tr><tr><td style="font-weight:bold;vertical-align:top;">httponly</td><td style="vertical-align:top;">:</td><td><div></div></td></tr><tr><td style="font-weight:bold;vertical-align:top;">max-age</td><td style="vertical-align:top;">:</td><td><div></div></td></tr><tr><td style="font-weight:bold;vertical-align:top;">path</td><td style="vertical-align:top;">:</td><td><div></div></td></tr><tr><td style="font-weight:bold;vertical-align:top;">samesite</td><td style="vertical-align:top;">:</td><td><div></div></td></tr><tr><td style="font-weight:bold;vertical-align:top;">secure</td><td style="vertical-align:top;">:</td><td><div></div></td></tr><tr><td style="font-weight:bold;vertical-align:top;">version</td><td style="vertical-align:top;">:</td><td><div></div></td></tr></table></div></td></tr><tr><td style="font-weight:bold;vertical-align:top;">session_id_welcome</td><td style="vertical-align:top;">:</td><td><div>127.0.0.1-4a9765a0-cc36-4252-9cf9-057b6c374c78<table><tr><td style="font-weight:bold;vertical-align:top;">comment</td><td style="vertical-align:top;">:</td><td><div></div></td></tr><tr><td style="font-weight:bold;vertical-align:top;">domain</td><td style="vertical-align:top;">:</td><td><div></div></td></tr><tr><td style="font-weight:bold;vertical-align:top;">expires</td><td style="vertical-align:top;">:</td><td><div></div></td></tr><tr><td style="font-weight:bold;vertical-align:top;">httponly</td><td style="vertical-align:top;">:</td><td><div></div></td></tr><tr><td style="font-weight:bold;vertical-align:top;">max-age</td><td style="vertical-align:top;">:</td><td><div></div></td></tr><tr><td style="font-weight:bold;vertical-align:top;">path</td><td style="vertical-align:top;">:</td><td><div></div></td></tr><tr><td style="font-weight:bold;vertical-align:top;">samesite</td><td style="vertical-align:top;">:</td><td><div></div></td></tr><tr><td style="font-weight:bold;vertical-align:top;">secure</td><td style="vertical-align:top;">:</td><td><div></div></td></tr><tr><td style="font-weight:bold;vertical-align:top;">version</td><td style="vertical-align:top;">:</td><td><div></div></td></tr></table></div></td></tr></table></div></td></tr><tr><td style="font-weight:bold;vertical-align:top;">env</td><td style="vertical-align:top;">:</td><td><div><table><tr><td style="font-weight:bold;vertical-align:top;">HTTP_ACCEPT</td><td style="vertical-align:top;">:</td><td><div>text/html,application/xhtml+xml,application/xml;q=0.9,image/webp,image/apng,*/*;q=0.8</div></td></tr><tr><td style="font-weight:bold;vertical-align:top;">HTTP_ACCEPT_ENCODING</td><td style="vertical-align:top;">:</td><td><div>gzip, deflate, br</div></td></tr><tr><td style="font-weight:bold;vertical-align:top;">HTTP_ACCEPT_LANGUAGE</td><td style="vertical-align:top;">:</td><td><div>en-US,en;q=0.9,zh-CN;q=0.8,zh;q=0.7</div></td></tr><tr><td style="font-weight:bold;vertical-align:top;">HTTP_CACHE_CONTROL</td><td style="vertical-align:top;">:</td><td><div>no-cache</div></td></tr><tr><td style="font-weight:bold;vertical-align:top;">HTTP_CONNECTION</td><td style="vertical-align:top;">:</td><td><div>keep-alive</div></td></tr><tr><td style="font-weight:bold;vertical-align:top;">HTTP_COOKIE</td><td style="vertical-align:top;">:</td><td><div>session_id_hw3=&quot;3:ac261a65-08f1-48e5-9d78-c2c71eb19157&quot;; session_id_admin=127.0.0.1-c93253e7-aa28-404e-9bbf-809ca003cc85; session_id_welcome=127.0.0.1-4a9765a0-cc36-4252-9cf9-057b6c374c78; session_id_tutorplus=127.0.0.1-04943e79-9895-4e54-8d14-83f078eb1fb0</div></td></tr><tr><td style="font-weight:bold;vertical-align:top;">HTTP_HOST</td><td style="vertical-align:top;">:</td><td><div>127.0.0.1:8000</div></td></tr><tr><td style="font-weight:bold;vertical-align:top;">HTTP_PRAGMA</td><td style="vertical-align:top;">:</td><td><div>no-cache</div></td></tr><tr><td style="font-weight:bold;vertical-align:top;">HTTP_REFERER</td><td style="vertical-align:top;">:</td><td><div>http://127.0.0.1:8000/admin/default/site</div></td></tr><tr><td style="font-weight:bold;vertical-align:top;">HTTP_UPGRADE_INSECURE_REQUESTS</td><td style="vertical-align:top;">:</td><td><div>1</div></td></tr><tr><td style="font-weight:bold;vertical-align:top;">HTTP_USER_AGENT</td><td style="vertical-align:top;">:</td><td><div>Mozilla/5.0 (Windows NT 10.0; Win64; x64) AppleWebKit/537.36 (KHTML, like Gecko) Chrome/70.0.3538.110 Safari/537.36</div></td></tr><tr><td style="font-weight:bold;vertical-align:top;">PATH_INFO</td><td style="vertical-align:top;">:</td><td><div>/TutorPlus/default/index</div></td></tr><tr><td style="font-weight:bold;vertical-align:top;">QUERY_STRING</td><td style="vertical-align:top;">:</td><td><div></div></td></tr><tr><td style="font-weight:bold;vertical-align:top;">REMOTE_ADDR</td><td style="vertical-align:top;">:</td><td><div>127.0.0.1</div></td></tr><tr><td style="font-weight:bold;vertical-align:top;">REMOTE_PORT</td><td style="vertical-align:top;">:</td><td><div>56720</div></td></tr><tr><td style="font-weight:bold;vertical-align:top;">REQUEST_METHOD</td><td style="vertical-align:top;">:</td><td><div>GET</div></td></tr><tr><td style="font-weight:bold;vertical-align:top;">SCRIPT_NAME</td><td style="vertical-align:top;">:</td><td><div></div></td></tr><tr><td style="font-weight:bold;vertical-align:top;">SERVER_NAME</td><td style="vertical-align:top;">:</td><td><div>DESKTOP-C7GQ937</div></td></tr><tr><td style="font-weight:bold;vertical-align:top;">SERVER_PORT</td><td style="vertical-align:top;">:</td><td><div>8000</div></td></tr><tr><td style="font-weight:bold;vertical-align:top;">SERVER_PROTOCOL</td><td style="vertical-align:top;">:</td><td><div>HTTP/1.1</div></td></tr><tr><td style="font-weight:bold;vertical-align:top;">SERVER_SOFTWARE</td><td style="vertical-align:top;">:</td><td><div>Rocket 1.2.6</div></td></tr><tr><td style="font-weight:bold;vertical-align:top;">app_folders</td><td style="vertical-align:top;">:</td><td><div>set([&#x27;C:\\\\Users\\\\zjylh\\\\Desktop\\\\TutorPlus-Web\\\\TutorPlusWeb\\\\web2py\\\\applications\\\\welcome\\\\&#x27;, &#x27;C:\\\\Users\\\\zjylh\\\\Desktop\\\\TutorPlus-Web\\\\TutorPlusWeb\\\\web2py\\\\applications\\\\admin\\\\&#x27;, &#x27;C:\\\\Users\\\\zjylh\\\\Desktop\\\\TutorPlus-Web\\\\TutorPlusWeb\\\\web2py\\\\applications\\\\TutorPlus\\\\&#x27;])</div></td></tr><tr><td style="font-weight:bold;vertical-align:top;">applications_parent</td><td style="vertical-align:top;">:</td><td><div>C:\\Users\\zjylh\\Desktop\\TutorPlus-Web\\TutorPlusWeb\\web2py</div></td></tr><tr><td style="font-weight:bold;vertical-align:top;">cmd_args</td><td style="vertical-align:top;">:</td><td><div><table></table></div></td></tr><tr><td style="font-weight:bold;vertical-align:top;">cmd_options</td><td style="vertical-align:top;">:</td><td><div>&lt;Values at 0x52389c8: {&#x27;verbose&#x27;: False, &#x27;ip&#x27;: &#x27;127.0.0.1&#x27;, &#x27;debuglevel&#x27;: 30, &#x27;with_scheduler&#x27;: False, &#x27;shutdown_timeout&#x27;: 5, &#x27;taskbar&#x27;: False, &#x27;with_coverage&#x27;: False, &#x27;pid_filename&#x27;: &#x27;httpserver.pid&#x27;, &#x27;maxthreads&#x27;: None, &#x27;softcron&#x27;: False, &#x27;server_name&#x27;: &#x27;DESKTOP-C7GQ937&#x27;, &#x27;bpython&#x27;: False, &#x27;nogui&#x27;: False, &#x27;port&#x27;: 8000, &#x27;print_errors&#x27;: False, &#x27;extcron&#x27;: False, &#x27;runcron&#x27;: False, &#x27;run_system_tests&#x27;: False, &#x27;test&#x27;: None, &#x27;folder&#x27;: &#x27;C:\\\\Users\\\\zjylh\\\\Desktop\\\\TutorPlus-Web\\\\TutorPlusWeb\\\\web2py&#x27;, &#x27;config&#x27;: &#x27;&#x27;, &#x27;minthreads&#x27;: None, &#x27;shell&#x27;: None, &#x27;run&#x27;: &#x27;&#x27;, &#x27;log_filename&#x27;: &#x27;httpserver.log&#x27;, &#x27;profiler_dir&#x27;: None, &#x27;args&#x27;: [&#x27;&#x27;], &#x27;socket_timeout&#x27;: 5, &#x27;ssl_ca_certificate&#x27;: None, &#x27;scheduler&#x27;: None, &#x27;interfaces&#x27;: None, &#x27;ssl_private_key&#x27;: &#x27;&#x27;, &#x27;gae&#x27;: None, &#x27;password&#x27;: &#x27;******&#x27;, &#x27;request_queue_size&#x27;: 5, &#x27;ssl_certificate&#x27;: &#x27;&#x27;, &#x27;cronjob&#x27;: False, &#x27;numthreads&#x27;: None, &#x27;quiet&#x27;: False, &#x27;import_models&#x27;: False, &#x27;timeout&#x27;: 10, &#x27;plain&#x27;: False, &#x27;nobanner&#x27;: False}&gt;</div></td></tr><tr><td style="font-weight:bold;vertical-align:top;">db_sessions</td><td style="vertical-align:top;">:</td><td><div>set([])</div></td></tr><tr><td style="font-weight:bold;vertical-align:top;">debugging</td><td style="vertical-align:top;">:</td><td><div>False</div></td></tr><tr><td style="font-weight:bold;vertical-align:top;">gluon_parent</td><td style="vertical-align:top;">:</td><td><div>C:\\Users\\zjylh\\Desktop\\TutorPlus-Web\\TutorPlusWeb\\web2py</div></td></tr><tr><td style="font-weight:bold;vertical-align:top;">http_accept</td><td style="vertical-align:top;">:</td><td><div>text/html,application/xhtml+xml,application/xml;q=0.9,image/webp,image/apng,*/*;q=0.8</div></td></tr><tr><td style="font-weight:bold;vertical-align:top;">http_accept_encoding</td><td style="vertical-align:top;">:</td><td><div>gzip, deflate, br</div></td></tr><tr><td style="font-weight:bold;vertical-align:top;">http_accept_language</td><td style="vertical-align:top;">:</td><td><div>en-US,en;q=0.9,zh-CN;q=0.8,zh;q=0.7</div></td></tr><tr><td style="font-weight:bold;vertical-align:top;">http_cache_control</td><td style="vertical-align:top;">:</td><td><div>no-cache</div></td></tr><tr><td style="font-weight:bold;vertical-align:top;">http_connection</td><td style="vertical-align:top;">:</td><td><div>keep-alive</div></td></tr><tr><td style="font-weight:bold;vertical-align:top;">http_cookie</td><td style="vertical-align:top;">:</td><td><div>session_id_hw3=&quot;3:ac261a65-08f1-48e5-9d78-c2c71eb19157&quot;; session_id_admin=127.0.0.1-c93253e7-aa28-404e-9bbf-809ca003cc85; session_id_welcome=127.0.0.1-4a9765a0-cc36-4252-9cf9-057b6c374c78; session_id_tutorplus=127.0.0.1-04943e79-9895-4e54-8d14-83f078eb1fb0</div></td></tr><tr><td style="font-weight:bold;vertical-align:top;">http_host</td><td style="vertical-align:top;">:</td><td><div>127.0.0.1:8000</div></td></tr><tr><td style="font-weight:bold;vertical-align:top;">http_pragma</td><td style="vertical-align:top;">:</td><td><div>no-cache</div></td></tr><tr><td style="font-weight:bold;vertical-align:top;">http_referer</td><td style="vertical-align:top;">:</td><td><div>http://127.0.0.1:8000/admin/default/site</div></td></tr><tr><td style="font-weight:bold;vertical-align:top;">http_upgrade_insecure_requests</td><td style="vertical-align:top;">:</td><td><div>1</div></td></tr><tr><td style="font-weight:bold;vertical-align:top;">http_user_agent</td><td style="vertical-align:top;">:</td><td><div>Mozilla/5.0 (Windows NT 10.0; Win64; x64) AppleWebKit/537.36 (KHTML, like Gecko) Chrome/70.0.3538.110 Safari/537.36</div></td></tr><tr><td style="font-weight:bold;vertical-align:top;">is_jython</td><td style="vertical-align:top;">:</td><td><div>False</div></td></tr><tr><td style="font-weight:bold;vertical-align:top;">is_py2</td><td style="vertical-align:top;">:</td><td><div>True</div></td></tr><tr><td style="font-weight:bold;vertical-align:top;">is_pypy</td><td style="vertical-align:top;">:</td><td><div>False</div></td></tr><tr><td style="font-weight:bold;vertical-align:top;">is_source</td><td style="vertical-align:top;">:</td><td><div>True</div></td></tr><tr><td style="font-weight:bold;vertical-align:top;">local_hosts</td><td style="vertical-align:top;">:</td><td><div><table><tr><td><div>fe80::e884:20d3:a637:9e4f%20</div></td></tr><tr><td><div>192.168.31.202</div></td></tr><tr><td><div>::ffff:127.0.0.1</div></td></tr><tr><td><div>::1</div></td></tr><tr><td><div>fe80::29b0:f869:15e5:ab23%23</div></td></tr><tr><td><div>DESKTOP-C7GQ937</div></td></tr><tr><td><div>127.0.0.1</div></td></tr><tr><td><div>192.168.56.1</div></td></tr></table></div></td></tr><tr><td style="font-weight:bold;vertical-align:top;">path_info</td><td style="vertical-align:top;">:</td><td><div>/TutorPlus/default/index</div></td></tr><tr><td style="font-weight:bold;vertical-align:top;">query_string</td><td style="vertical-align:top;">:</td><td><div></div></td></tr><tr><td style="font-weight:bold;vertical-align:top;">remote_addr</td><td style="vertical-align:top;">:</td><td><div>127.0.0.1</div></td></tr><tr><td style="font-weight:bold;vertical-align:top;">remote_port</td><td style="vertical-align:top;">:</td><td><div>56720</div></td></tr><tr><td style="font-weight:bold;vertical-align:top;">request_method</td><td style="vertical-align:top;">:</td><td><div>GET</div></td></tr><tr><td style="font-weight:bold;vertical-align:top;">request_uri</td><td style="vertical-align:top;">:</td><td><div>/TutorPlus/default/index</div></td></tr><tr><td style="font-weight:bold;vertical-align:top;">script_name</td><td style="vertical-align:top;">:</td><td><div></div></td></tr><tr><td style="font-weight:bold;vertical-align:top;">server_name</td><td style="vertical-align:top;">:</td><td><div>DESKTOP-C7GQ937</div></td></tr><tr><td style="font-weight:bold;vertical-align:top;">server_port</td><td style="vertical-align:top;">:</td><td><div>8000</div></td></tr><tr><td style="font-weight:bold;vertical-align:top;">server_protocol</td><td style="vertical-align:top;">:</td><td><div>HTTP/1.1</div></td></tr><tr><td style="font-weight:bold;vertical-align:top;">server_software</td><td style="vertical-align:top;">:</td><td><div>Rocket 1.2.6</div></td></tr><tr><td style="font-weight:bold;vertical-align:top;">web2py_path</td><td style="vertical-align:top;">:</td><td><div>C:\\Users\\zjylh\\Desktop\\TutorPlus-Web\\TutorPlusWeb\\web2py</div></td></tr><tr><td style="font-weight:bold;vertical-align:top;">web2py_version</td><td style="vertical-align:top;">:</td><td><div>2.17.2-stable+timestamp.2018.10.06.18.54.02</div></td></tr><tr><td style="font-weight:bold;vertical-align:top;">wsgi.errors</td><td style="vertical-align:top;">:</td><td><div>&lt;open file &#x27;&lt;stderr&gt;&#x27;, mode &#x27;w&#x27; at 0x0000000002E6B150&gt;</div></td></tr><tr><td style="font-weight:bold;vertical-align:top;">wsgi.file_wrapper</td><td style="vertical-align:top;">:</td><td><div>&lt;class wsgiref.util.FileWrapper at 0x00000000051AC9A8&gt;</div></td></tr><tr><td style="font-weight:bold;vertical-align:top;">wsgi.input</td><td style="vertical-align:top;">:</td><td><div>&lt;socket._fileobject object at 0x00000000067DDD68&gt;</div></td></tr><tr><td style="font-weight:bold;vertical-align:top;">wsgi.multiprocess</td><td style="vertical-align:top;">:</td><td><div>False</div></td></tr><tr><td style="font-weight:bold;vertical-align:top;">wsgi.multithread</td><td style="vertical-align:top;">:</td><td><div>True</div></td></tr><tr><td style="font-weight:bold;vertical-align:top;">wsgi.run_once</td><td style="vertical-align:top;">:</td><td><div>False</div></td></tr><tr><td style="font-weight:bold;vertical-align:top;">wsgi.url_scheme</td><td style="vertical-align:top;">:</td><td><div>http</div></td></tr><tr><td style="font-weight:bold;vertical-align:top;">wsgi.version</td><td style="vertical-align:top;">:</td><td><div><table><tr><td><div>1</div></td></tr><tr><td><div>0</div></td></tr></table></div></td></tr><tr><td style="font-weight:bold;vertical-align:top;">wsgi_errors</td><td style="vertical-align:top;">:</td><td><div>&lt;open file &#x27;&lt;stderr&gt;&#x27;, mode &#x27;w&#x27; at 0x0000000002E6B150&gt;</div></td></tr><tr><td style="font-weight:bold;vertical-align:top;">wsgi_file_wrapper</td><td style="vertical-align:top;">:</td><td><div>&lt;class wsgiref.util.FileWrapper at 0x00000000051AC9A8&gt;</div></td></tr><tr><td style="font-weight:bold;vertical-align:top;">wsgi_input</td><td style="vertical-align:top;">:</td><td><div>&lt;socket._fileobject object at 0x00000000067DDD68&gt;</div></td></tr><tr><td style="font-weight:bold;vertical-align:top;">wsgi_multiprocess</td><td style="vertical-align:top;">:</td><td><div>False</div></td></tr><tr><td style="font-weight:bold;vertical-align:top;">wsgi_multithread</td><td style="vertical-align:top;">:</td><td><div>True</div></td></tr><tr><td style="font-weight:bold;vertical-align:top;">wsgi_run_once</td><td style="vertical-align:top;">:</td><td><div>False</div></td></tr><tr><td style="font-weight:bold;vertical-align:top;">wsgi_url_scheme</td><td style="vertical-align:top;">:</td><td><div>http</div></td></tr><tr><td style="font-weight:bold;vertical-align:top;">wsgi_version</td><td style="vertical-align:top;">:</td><td><div><table><tr><td><div>1</div></td></tr><tr><td><div>0</div></td></tr></table></div></td></tr></table></div></td></tr><tr><td style="font-weight:bold;vertical-align:top;">extension</td><td style="vertical-align:top;">:</td><td><div>html</div></td></tr><tr><td style="font-weight:bold;vertical-align:top;">folder</td><td style="vertical-align:top;">:</td><td><div>C:\\Users\\zjylh\\Desktop\\TutorPlus-Web\\TutorPlusWeb\\web2py\\applications\\TutorPlus\\</div></td></tr><tr><td style="font-weight:bold;vertical-align:top;">function</td><td style="vertical-align:top;">:</td><td><div>index</div></td></tr><tr><td style="font-weight:bold;vertical-align:top;">global_settings</td><td style="vertical-align:top;">:</td><td><div><table><tr><td style="font-weight:bold;vertical-align:top;">app_folders</td><td style="vertical-align:top;">:</td><td><div>set([&#x27;C:\\\\Users\\\\zjylh\\\\Desktop\\\\TutorPlus-Web\\\\TutorPlusWeb\\\\web2py\\\\applications\\\\welcome\\\\&#x27;, &#x27;C:\\\\Users\\\\zjylh\\\\Desktop\\\\TutorPlus-Web\\\\TutorPlusWeb\\\\web2py\\\\applications\\\\admin\\\\&#x27;, &#x27;C:\\\\Users\\\\zjylh\\\\Desktop\\\\TutorPlus-Web\\\\TutorPlusWeb\\\\web2py\\\\applications\\\\TutorPlus\\\\&#x27;])</div></td></tr><tr><td style="font-weight:bold;vertical-align:top;">applications_parent</td><td style="vertical-align:top;">:</td><td><div>C:\\Users\\zjylh\\Desktop\\TutorPlus-Web\\TutorPlusWeb\\web2py</div></td></tr><tr><td style="font-weight:bold;vertical-align:top;">cmd_args</td><td style="vertical-align:top;">:</td><td><div><table></table></div></td></tr><tr><td style="font-weight:bold;vertical-align:top;">cmd_options</td><td style="vertical-align:top;">:</td><td><div>&lt;Values at 0x52389c8: {&#x27;verbose&#x27;: False, &#x27;ip&#x27;: &#x27;127.0.0.1&#x27;, &#x27;debuglevel&#x27;: 30, &#x27;with_scheduler&#x27;: False, &#x27;shutdown_timeout&#x27;: 5, &#x27;taskbar&#x27;: False, &#x27;with_coverage&#x27;: False, &#x27;pid_filename&#x27;: &#x27;httpserver.pid&#x27;, &#x27;maxthreads&#x27;: None, &#x27;softcron&#x27;: False, &#x27;server_name&#x27;: &#x27;DESKTOP-C7GQ937&#x27;, &#x27;bpython&#x27;: False, &#x27;nogui&#x27;: False, &#x27;port&#x27;: 8000, &#x27;print_errors&#x27;: False, &#x27;extcron&#x27;: False, &#x27;runcron&#x27;: False, &#x27;run_system_tests&#x27;: False, &#x27;test&#x27;: None, &#x27;folder&#x27;: &#x27;C:\\\\Users\\\\zjylh\\\\Desktop\\\\TutorPlus-Web\\\\TutorPlusWeb\\\\web2py&#x27;, &#x27;config&#x27;: &#x27;&#x27;, &#x27;minthreads&#x27;: None, &#x27;shell&#x27;: None, &#x27;run&#x27;: &#x27;&#x27;, &#x27;log_filename&#x27;: &#x27;httpserver.log&#x27;, &#x27;profiler_dir&#x27;: None, &#x27;args&#x27;: [&#x27;&#x27;], &#x27;socket_timeout&#x27;: 5, &#x27;ssl_ca_certificate&#x27;: None, &#x27;scheduler&#x27;: None, &#x27;interfaces&#x27;: None, &#x27;ssl_private_key&#x27;: &#x27;&#x27;, &#x27;gae&#x27;: None, &#x27;password&#x27;: &#x27;******&#x27;, &#x27;request_queue_size&#x27;: 5, &#x27;ssl_certificate&#x27;: &#x27;&#x27;, &#x27;cronjob&#x27;: False, &#x27;numthreads&#x27;: None, &#x27;quiet&#x27;: False, &#x27;import_models&#x27;: False, &#x27;timeout&#x27;: 10, &#x27;plain&#x27;: False, &#x27;nobanner&#x27;: False}&gt;</div></td></tr><tr><td style="font-weight:bold;vertical-align:top;">db_sessions</td><td style="vertical-align:top;">:</td><td><div>set([])</div></td></tr><tr><td style="font-weight:bold;vertical-align:top;">debugging</td><td style="vertical-align:top;">:</td><td><div>False</div></td></tr><tr><td style="font-weight:bold;vertical-align:top;">gluon_parent</td><td style="vertical-align:top;">:</td><td><div>C:\\Users\\zjylh\\Desktop\\TutorPlus-Web\\TutorPlusWeb\\web2py</div></td></tr><tr><td style="font-weight:bold;vertical-align:top;">is_jython</td><td style="vertical-align:top;">:</td><td><div>False</div></td></tr><tr><td style="font-weight:bold;vertical-align:top;">is_py2</td><td style="vertical-align:top;">:</td><td><div>True</div></td></tr><tr><td style="font-weight:bold;vertical-align:top;">is_pypy</td><td style="vertical-align:top;">:</td><td><div>False</div></td></tr><tr><td style="font-weight:bold;vertical-align:top;">is_source</td><td style="vertical-align:top;">:</td><td><div>True</div></td></tr><tr><td style="font-weight:bold;vertical-align:top;">local_hosts</td><td style="vertical-align:top;">:</td><td><div><table><tr><td><div>fe80::e884:20d3:a637:9e4f%20</div></td></tr><tr><td><div>192.168.31.202</div></td></tr><tr><td><div>::ffff:127.0.0.1</div></td></tr><tr><td><div>::1</div></td></tr><tr><td><div>fe80::29b0:f869:15e5:ab23%23</div></td></tr><tr><td><div>DESKTOP-C7GQ937</div></td></tr><tr><td><div>127.0.0.1</div></td></tr><tr><td><div>192.168.56.1</div></td></tr></table></div></td></tr><tr><td style="font-weight:bold;vertical-align:top;">web2py_version</td><td style="vertical-align:top;">:</td><td><div>2.17.2-stable+timestamp.2018.10.06.18.54.02</div></td></tr></table></div></td></tr><tr><td style="font-weight:bold;vertical-align:top;">is_https</td><td style="vertical-align:top;">:</td><td><div>False</div></td></tr><tr><td style="font-weight:bold;vertical-align:top;">is_local</td><td style="vertical-align:top;">:</td><td><div>True</div></td></tr><tr><td style="font-weight:bold;vertical-align:top;">is_restful</td><td style="vertical-align:top;">:</td><td><div>False</div></td></tr><tr><td style="font-weight:bold;vertical-align:top;">is_scheduler</td><td style="vertical-align:top;">:</td><td><div>False</div></td></tr><tr><td style="font-weight:bold;vertical-align:top;">is_shell</td><td style="vertical-align:top;">:</td><td><div>False</div></td></tr><tr><td style="font-weight:bold;vertical-align:top;">method</td><td style="vertical-align:top;">:</td><td><div>GET</div></td></tr><tr><td style="font-weight:bold;vertical-align:top;">now</td><td style="vertical-align:top;">:</td><td><div>datetime.datetime(2018, 12, 2, 13, 55, 31, 25000)</div></td></tr><tr><td style="font-weight:bold;vertical-align:top;">raw_args</td><td style="vertical-align:top;">:</td><td><div></div></td></tr><tr><td style="font-weight:bold;vertical-align:top;">raw_extension</td><td style="vertical-align:top;">:</td><td><div>None</div></td></tr><tr><td style="font-weight:bold;vertical-align:top;">url</td><td style="vertical-align:top;">:</td><td><div>/TutorPlus/default/index</div></td></tr><tr><td style="font-weight:bold;vertical-align:top;">utcnow</td><td style="vertical-align:top;">:</td><td><div>datetime.datetime(2018, 12, 2, 21, 55, 31, 25000)</div></td></tr><tr><td style="font-weight:bold;vertical-align:top;">wsgi</td><td style="vertical-align:top;">:</td><td><div>&lt;gluon.main.LazyWSGI object at 0x000000000C605C50&gt;</div></td></tr></table></div>'
tRp60
sS'frames'
p61
(lp62
(dp63
S'file'
p64
S'C:\\Users\\zjylh\\Desktop\\TutorPlus-Web\\TutorPlusWeb\\web2py\\gluon\\restricted.py'
p65
sS'dump'
p66
(dp67
S'environment'
p68
S"{'A': <class 'gluon.html.A'>, 'ANY_OF': <class 'gluon.validators.ANY_OF'>, 'ASSIGNJS': <function ASSIGNJS>, 'AppConfig': <function AppConfig>, 'B': <class 'gluon.html.B'>, 'BEAUTIFY': <class 'gluon.html.BEAUTIFY'>, 'BODY': <class 'gluon.html.BODY'>, 'BR': <class 'gluon.html.BR'>, 'BUTTON': <class 'gluon.html.BUTTON'>, 'CAT': <class 'gluon.html.CAT'>, ...}"
p69
sS'ccode'
p70
S'<code object <module> at 00000000067F1EB0, file ...ions\\TutorPlus\\views\\default/index.html", line 1>'
p71
ssS'lnum'
p72
I219
sS'lines'
p73
(dp74
I214
S'    if environment is None:'
p75
sI215
S'        environment = {}'
p76
sI216
S"    environment['__file__'] = layer"
p77
sI217
S"    environment['__name__'] = '__restricted__'"
p78
sI218
S'    try:'
p79
sI219
S'        exec(ccode, environment)'
p80
sI220
S'    except HTTP:'
p81
sI221
S'        raise'
p82
sI222
S'    except RestrictedError:'
p83
sI223
S'        # do not encapsulate (obfuscate) the original RestrictedError'
p84
ssS'call'
p85
S'(ccode=<code object <module> at 00000000067F1EB0, file ...ions\\TutorPlus\\views\\default/index.html", line 1>, environment={\'A\': <class \'gluon.html.A\'>, \'ANY_OF\': <class \'gluon.validators.ANY_OF\'>, \'ASSIGNJS\': <function ASSIGNJS>, \'AppConfig\': <function AppConfig>, \'B\': <class \'gluon.html.B\'>, \'BEAUTIFY\': <class \'gluon.html.BEAUTIFY\'>, \'BODY\': <class \'gluon.html.BODY\'>, \'BR\': <class \'gluon.html.BR\'>, \'BUTTON\': <class \'gluon.html.BUTTON\'>, \'CAT\': <class \'gluon.html.CAT\'>, ...}, layer=r\'C:\\Users\\zjylh\\Desktop\\TutorPlus-Web\\TutorPlusWe...y\\applications\\TutorPlus\\views\\default/index.html\', scode=\'response.write(\\\'<!DOCTYPE html>\\\\r\\\\n<html lang="e...==========================-->\\\\r\\\\n\\\', escape=False)\')'
p86
sS'func'
p87
S'restricted'
p88
sa(dp89
g64
S'C:\\Users\\zjylh\\Desktop\\TutorPlus-Web\\TutorPlusWeb\\web2py\\applications\\TutorPlus\\views\\default\\index.html'
p90
sg66
(dp91
S'div'
p92
S'undefined'
p93
sS'data'
p94
g93
sS'validate'
p95
g93
ssg72
I76
sg73
(dp96
I67
S"response.write('\\r\\n', escape=False)"
p97
sI68
S'response.write(\'\\r\\n<!--========================================Backend-URL==================================================-->\\r\\n\\t<!--===============================================================================================-->\\r\\n<script>\\r\\n    let get_profile_url = "\', escape=False)'
p98
sI69
S"response.write(URL('api', 'get_profile'))"
p99
sI70
S'response.write(\'";\\r\\n</script>\\r\\n\', escape=False)'
p100
sI71
S'response.write(\'\\r\\n<!--========================================Front-end==================================================-->\\r\\n\\t<!--===============================================================================================-->\\r\\n<!--\\r\\n<html>\\r\\n    <body>-->\\r\\n<div id="vue-index">\\r\\n  <v-app>\\r\\n  <!----------------------------------- login part -------------------------------->\\r\\n  <!--login_idx is used to control display: LOGIN, SIGNUP-->\\r\\n  <div id="login_part" v-show="!logged_in">\\r\\n\\r\\n    <!---login--->\\r\\n    <span v-show="login_idx === \\\'LOGIN\\\'">\\r\\n      <div class="limiter">\\r\\n        <div class="container-login100">\\r\\n          <div class="wrap-login100 p-t-85 p-b-20">\\r\\n\\r\\n            <div class="login100-form validate-form" id="login_div">\\r\\n\\r\\n              <img src="\', escape=False)'
p101
sI72
S"response.write(URL('static','images/Logo.png'))"
p102
sI73
S'response.write(\'" align="middle">\\r\\n\\r\\n              <div class="wrap-input100 validate-input m-t-85 m-b-35" data-validate="Enter username">\\r\\n                <input class="input100" type="text" name="username" id="username_field">\\r\\n                <span class="focus-input100" data-placeholder="Email"></span>\\r\\n              </div>\\r\\n\\r\\n              <div class="wrap-input100 validate-input m-b-50" data-validate="Enter password">\\r\\n                <input class="input100" type="password" name="password" id="password_field">\\r\\n                <span class="focus-input100" data-placeholder="Password"></span>\\r\\n              </div>\\r\\n\\r\\n              <div class="container-login100-form-btn">\\r\\n                <button v-on:click="login()" class="login100-form-btn">Login</button>\\r\\n              </div>\\r\\n\\r\\n              <ul class="login-more p-t-190">\\r\\n                <li>\\r\\n                  <span class="txt1">\\r\\n                    Don\\xe2\\x80\\x99t have an account?\\r\\n                  </span>\\r\\n\\r\\n                  <a href="javascript:void(0)" v-on:click="login_idx = \\\'SIGNUP\\\'" class="txt2">\\r\\n                    Sign up\\r\\n                  </a>\\r\\n                </li>\\r\\n              </ul>\\r\\n            </div>\\r\\n          </div>\\r\\n        </div>\\r\\n      </div>\\r\\n    </span>\\r\\n\\r\\n\\r\\n    <!---signup--->\\r\\n    <span v-show="login_idx === \\\'SIGNUP\\\'">\\r\\n      <div class="limiter">\\r\\n        <div class="container-login100">\\r\\n          <div class="wrap-login100 p-t-85 p-b-20">\\r\\n\\r\\n            <div class="login100-form validate-form" id="login_div">\\r\\n\\r\\n              <img src="\', escape=False)'
p103
sI74
S"response.write(URL('static','images/Logo.png'))"
p104
sI75
S'response.write(\'" align="middle">\\r\\n\\r\\n              <div class="wrap-input100 validate-input m-t-85 m-b-35" data-validate="Enter username">\\r\\n                <input class="input100" type="text" name="username-signup" id="username_signup_field">\\r\\n                <span class="focus-input100" data-placeholder="Email"></span>\\r\\n              </div>\\r\\n\\r\\n              <div class="wrap-input100 validate-input m-b-50" data-validate="Enter password">\\r\\n                <input class="input100" type="password" name="password-signup" id="password_signup_field">\\r\\n                <span class="focus-input100" data-placeholder="Password"></span>\\r\\n              </div>\\r\\n\\r\\n              <div class="wrap-input100 validate-input m-b-50" data-validate="Enter password">\\r\\n                <input class="input100" type="password" name="re-password" id="re-password_signup_field">\\r\\n                <span class="focus-input100" data-placeholder="Re-Password"></span>\\r\\n              </div>\\r\\n\\r\\n              <div class="container-login50-form-btn">\\r\\n                <button v-on:click="signup()" class="login50-form-btn">Signup</button>\\r\\n                <button v-on:click="login_idx = \\\'LOGIN\\\'" class="login50-form-btn">Return</button>\\r\\n              </div>\\r\\n            </div>\\r\\n          </div>\\r\\n        </div>\\r\\n      </div>\\r\\n    </span>\\r\\n\\r\\n    <!---messageBox--->\\r\\n    <modal v-show="is_login_messagebox_show" @close="is_login_messagebox_show = false">\\r\\n      <h3 slot="body">${ login_message }</h3>\\r\\n      <h3 slot="header">Login error</h3>\\r\\n    </modal>\\r\\n  </div>\\r\\n  <!------------------------------------------------------------------------------->\\r\\n\\r\\n\\r\\n  <!------------------------------------ main part -------------------------------->\\r\\n  <div id="main_part" v-show="logged_in">\\r\\n    <aside>\\r\\n      <figure>\\r\\n        <div id="avatar"></div>\\r\\n        <figcaption>${profile_name}</figcaption>\\r\\n      </figure>\\r\\n      <nav>\\r\\n        <ul>\\r\\n          <li><a href="javascript:void(0)" v-on:click="main_idx = \\\'HOME\\\'">Home</a></li>\\r\\n          <li><a href="javascript:void(0)" v-on:click="main_idx = \\\'SEARCH\\\'">Search</a></li>\\r\\n          <li><a href="javascript:void(0)" v-on:click="main_idx = \\\'PROFILE\\\'">Profile</a></li>\\r\\n          <li><a href="javascript:void(0)" v-on:click="main_idx = \\\'RESULT\\\'">Result</a></li>\\r\\n        </ul>\\r\\n      </nav>\\r\\n    </aside>\\r\\n\\r\\n    <main>\\r\\n      <!--========================================HOME==================================================-->\\r\\n\\t<!--===============================================================================================-->\\r\\n      <div v-show="main_idx === \\\'HOME\\\'">\\r\\n        <h1>Welcome to Tutor+</h1>\\r\\n        <p>Tutor+ is a right place to find your ideal tutor!</p>\\r\\n        <a href="javascript:void(0)" v-on:click="main_idx = \\\'SEARCH\\\'" class="cta">Do Search Now</a>\\r\\n        <button v-on:click="logout()">logout</button>\\r\\n      </div>\\r\\n      <!--========================================SEARCH==================================================-->\\r\\n\\t<!--===============================================================================================-->\\r\\n      <div v-show="main_idx === \\\'SEARCH\\\'">\\r\\n        Search page\\r\\n\\r\\n      </div>\\r\\n      <!--========================================PROFILE==================================================-->\\r\\n\\t<!--===============================================================================================-->\\r\\n      <div v-show="main_idx === \\\'PROFILE\\\'">\\r\\n\\r\\n        <div class="wrapper wrapper--w680">\\r\\n        <div class="card card-1">\\r\\n\\r\\n            <div class="card-heading"></div>\\r\\n            <div class="card-body">\\r\\n\\r\\n              <div v-if="!become_a_TA">\\r\\n                <h2 class="title">Update your Profile</h2>\\r\\n\\r\\n                <div>\\r\\n                  <v-flex xs12 sm6>\\r\\n                    <v-text-field\\r\\n                      v-bind:value="profile_email"\\r\\n                      label="Email"\\r\\n                      disabled\\r\\n                    ></v-text-field>\\r\\n                  </v-flex>\\r\\n                </div>\\r\\n\\r\\n                <div>\\r\\n                  <v-flex xs12 sm6>\\r\\n                    <v-text-field v-model="profile_name" label="Name"></v-text-field>\\r\\n                  </v-flex>\\r\\n                </div>\\r\\n\\r\\n                <div>\\r\\n                  <v-autocomplete v-model="profile_university" :items="school_list" :label="`University`" clearable>\\r\\n                    <v-slide-x-reverse-transition slot="append-outer" mode="out-in">\\r\\n                    </v-slide-x-reverse-transition>\\r\\n                  </v-autocomplete>\\r\\n                </div>\\r\\n\\r\\n                <div>\\r\\n                  <v-flex xs12 sm6>\\r\\n                    <v-autocomplete v-model="profile_major" :items="profile_major_list" :label="`Major`" clearable>\\r\\n                      <v-slide-x-reverse-transition slot="append-outer" mode="out-in">\\r\\n                      </v-slide-x-reverse-transition>\\r\\n                    </v-autocomplete>\\r\\n                    <!--<v-text-field v-model="profile_major" label="Major"></v-text-field>-->\\r\\n                  </v-flex>\\r\\n                </div>\\r\\n\\r\\n                <div>\\r\\n                  <v-flex xs12 sm6 md3>\\r\\n                  <v-autocomplete v-model="profile_gender" :items="[\\\'Male\\\',\\\'Female\\\']" :label="`Gender`">\\r\\n                    <v-slide-x-reverse-transition slot="append-outer" mode="out-in">\\r\\n                    </v-slide-x-reverse-transition>\\r\\n                  </v-autocomplete>\\r\\n                  </v-flex>\\r\\n                </div>\\r\\n\\r\\n                <v-textarea\\r\\n                  v-model="profile_personal_statement"\\r\\n                  color="teal"\\r\\n                  placeholder="Talk about yourself..."\\r\\n                  style="margin-top:45px; margin-bottom:25px"\\r\\n                >\\r\\n                  <div slot="label">\\r\\n                    Personal Statment <small></small>\\r\\n                  </div>\\r\\n                </v-textarea>\\r\\n\\r\\n\\r\\n                <v-layout row wrap>\\r\\n                  <div class="p-t-20" style="margin-right:15px">\\r\\n                    <button class="btn btn--radius btn--green" v-on:click="updateProfile()">Update</button>\\r\\n                  </div>\\r\\n                  <div class="p-t-20">\\r\\n                    <button class="btn btn--radius btn--green" v-on:click="become_a_TA=true">Become a Tutor!</button>\\r\\n                  </div>\\r\\n                </v-layout>\\r\\n\\r\\n              </div>\\r\\n\\r\\n              <div v-if="become_a_TA">\\r\\n                <h2 class="title">Update your Profile</h2>\\r\\n\\r\\n\\r\\n                <ta-course-card\\r\\n                  v-for="TutorCard in tutor_card_list"\\r\\n                  v-bind:card="TutorCard"\\r\\n                  v-bind:school_list="school_list"\\r\\n                  v-bind:school_data="school_data">\\r\\n                </ta-course-card>\\r\\n\\r\\n                <i class="fa fa-plus-circle" style="font-size:30px" v-on:click="newTutorCard()"></i>\\r\\n\\r\\n                <v-layout row wrap>\\r\\n                  <div class="p-t-20" style="margin-right:15px">\\r\\n                    <button class="btn btn--radius btn--green" v-on:click="updateTutorProfile()">Update</button>\\r\\n                  </div>\\r\\n                  <div class="p-t-20">\\r\\n                    <button class="btn btn--radius btn--green" v-on:click="become_a_TA=false">Back To You Personal Profile</button>\\r\\n                  </div>\\r\\n                </v-layout>\\r\\n\\r\\n              </div>\\r\\n\\r\\n            </div>\\r\\n\\r\\n        </div>\\r\\n        </div>\\r\\n\\r\\n\\r\\n\\r\\n\\r\\n      </div>\\r\\n\\r\\n\\r\\n      <!--========================================RESULT==================================================-->\\r\\n\\t<!--===============================================================================================-->\\r\\n      <div v-show="main_idx === \\\'RESULT\\\'">\\r\\n      \', escape=False)'
p105
sI76
S'get_profile_url'
p106
sI77
S'response.write(\'\\r\\n      </div>\\r\\n\\r\\n    </main>\\r\\n  </div>\\r\\n  <!------------------------------------------------------------------------------->\\r\\n</v-app>\\r\\n</div>\\r\\n\\r\\n\\r\\n\\r\\n<!-- Main JS-->\\r\\n<script src="\', escape=False)'
p107
sI78
S"response.write(URL('static', 'js/default_index.js'))"
p108
sI79
S'response.write(\'"></script>\\r\\n\\r\\n<!--\\r\\n</body>\\r\\n</html>-->\\r\\n\', escape=False)'
p109
sI80
S"response.write('\\r\\n</body>\\r\\n\\r\\n</html>\\r\\n\\r\\n<!--===============================================================================================-->\\r\\n', escape=False)"
p110
ssg85
S'()'
p111
sg87
S'<module>'
p112
sasS'pyver'
p113
S'Python 2.7.15: E:\\Anaconda\\python.exe (prefix: E:\\Anaconda)'
p114
sS'session'
p115
g59
(S's\x1a\x00\x00\x00<div><table></table></div>'
tRp116
sS'etype'
p117
S"<type 'exceptions.NameError'>"
p118
sS'date'
p119
S'Sun Dec  2 13:55:31 2018'
p120
sS'response'
p121
g59
(S's\x05>\x00\x00<div><table><tr><td style="font-weight:bold;vertical-align:top;">body</td><td style="vertical-align:top;">:</td><td><div>&lt;cStringIO.StringO object at 0x000000000732D538&gt;</div></td></tr><tr><td style="font-weight:bold;vertical-align:top;">cookies</td><td style="vertical-align:top;">:</td><td><div><table><tr><td style="font-weight:bold;vertical-align:top;">session_id_tutorplus</td><td style="vertical-align:top;">:</td><td><div>127.0.0.1-b708be11-7e20-4ef7-b724-9626a90b5b20<table><tr><td style="font-weight:bold;vertical-align:top;">comment</td><td style="vertical-align:top;">:</td><td><div></div></td></tr><tr><td style="font-weight:bold;vertical-align:top;">domain</td><td style="vertical-align:top;">:</td><td><div></div></td></tr><tr><td style="font-weight:bold;vertical-align:top;">expires</td><td style="vertical-align:top;">:</td><td><div></div></td></tr><tr><td style="font-weight:bold;vertical-align:top;">httponly</td><td style="vertical-align:top;">:</td><td><div></div></td></tr><tr><td style="font-weight:bold;vertical-align:top;">max-age</td><td style="vertical-align:top;">:</td><td><div></div></td></tr><tr><td style="font-weight:bold;vertical-align:top;">path</td><td style="vertical-align:top;">:</td><td><div>/</div></td></tr><tr><td style="font-weight:bold;vertical-align:top;">samesite</td><td style="vertical-align:top;">:</td><td><div></div></td></tr><tr><td style="font-weight:bold;vertical-align:top;">secure</td><td style="vertical-align:top;">:</td><td><div></div></td></tr><tr><td style="font-weight:bold;vertical-align:top;">version</td><td style="vertical-align:top;">:</td><td><div></div></td></tr></table></div></td></tr></table></div></td></tr><tr><td style="font-weight:bold;vertical-align:top;">delimiters</td><td style="vertical-align:top;">:</td><td><div><table><tr><td><div>{{</div></td></tr><tr><td><div>}}</div></td></tr></table></div></td></tr><tr><td style="font-weight:bold;vertical-align:top;">files</td><td style="vertical-align:top;">:</td><td><div><table><tr><td><div>/TutorPlus/static/js/jquery.js</div></td></tr><tr><td><div>/TutorPlus/static/css/calendar.css</div></td></tr><tr><td><div>/TutorPlus/static/js/calendar.js</div></td></tr><tr><td><div>/TutorPlus/static/js/web2py.js</div></td></tr></table></div></td></tr><tr><td style="font-weight:bold;vertical-align:top;">flash</td><td style="vertical-align:top;">:</td><td><div></div></td></tr><tr><td style="font-weight:bold;vertical-align:top;">form_label_separator</td><td style="vertical-align:top;">:</td><td><div></div></td></tr><tr><td style="font-weight:bold;vertical-align:top;">formstyle</td><td style="vertical-align:top;">:</td><td><div>bootstrap4_inline</div></td></tr><tr><td style="font-weight:bold;vertical-align:top;">generic_patterns</td><td style="vertical-align:top;">:</td><td><div><table><tr><td><div>*</div></td></tr></table></div></td></tr><tr><td style="font-weight:bold;vertical-align:top;">google_analytics_id</td><td style="vertical-align:top;">:</td><td><div>None</div></td></tr><tr><td style="font-weight:bold;vertical-align:top;">headers</td><td style="vertical-align:top;">:</td><td><div><table><tr><td style="font-weight:bold;vertical-align:top;">X-Powered-By</td><td style="vertical-align:top;">:</td><td><div>web2py</div></td></tr></table></div></td></tr><tr><td style="font-weight:bold;vertical-align:top;">menu</td><td style="vertical-align:top;">:</td><td><div><table><tr><td><div><table><tr><td><div>Home</div></td></tr><tr><td><div>False</div></td></tr><tr><td><div>/TutorPlus/default/index</div></td></tr><tr><td><div><table></table></div></td></tr></table></div></td></tr><tr><td><div><table><tr><td><div>My Sites</div></td></tr><tr><td><div>False</div></td></tr><tr><td><div>/admin/default/site</div></td></tr></table></div></td></tr><tr><td><div><table><tr><td><div>This App</div></td></tr><tr><td><div>False</div></td></tr><tr><td><div>#</div></td></tr><tr><td><div><table><tr><td><div><table><tr><td><div>Design</div></td></tr><tr><td><div>False</div></td></tr><tr><td><div>/admin/default/design/TutorPlus</div></td></tr></table></div></td></tr><tr><td><div><table><tr><td><div>Controller</div></td></tr><tr><td><div>False</div></td></tr><tr><td><div>/admin/default/edit/TutorPlus/controllers/default.py</div></td></tr></table></div></td></tr><tr><td><div><table><tr><td><div>View</div></td></tr><tr><td><div>False</div></td></tr><tr><td><div>/admin/default/edit/TutorPlus/views/default/index.html</div></td></tr></table></div></td></tr><tr><td><div><table><tr><td><div>DB Model</div></td></tr><tr><td><div>False</div></td></tr><tr><td><div>/admin/default/edit/TutorPlus/models/db.py</div></td></tr></table></div></td></tr><tr><td><div><table><tr><td><div>Menu Model</div></td></tr><tr><td><div>False</div></td></tr><tr><td><div>/admin/default/edit/TutorPlus/models/menu.py</div></td></tr></table></div></td></tr><tr><td><div><table><tr><td><div>Config.ini</div></td></tr><tr><td><div>False</div></td></tr><tr><td><div>/admin/default/edit/TutorPlus/private/appconfig.ini</div></td></tr></table></div></td></tr><tr><td><div><table><tr><td><div>Layout</div></td></tr><tr><td><div>False</div></td></tr><tr><td><div>/admin/default/edit/TutorPlus/views/layout.html</div></td></tr></table></div></td></tr><tr><td><div><table><tr><td><div>Stylesheet</div></td></tr><tr><td><div>False</div></td></tr><tr><td><div>/admin/default/edit/TutorPlus/static/css/web2py-bootstrap3.css</div></td></tr></table></div></td></tr><tr><td><div><table><tr><td><div>Database</div></td></tr><tr><td><div>False</div></td></tr><tr><td><div>/TutorPlus/appadmin/index</div></td></tr></table></div></td></tr><tr><td><div><table><tr><td><div>Errors</div></td></tr><tr><td><div>False</div></td></tr><tr><td><div>/admin/default/errors/TutorPlus</div></td></tr></table></div></td></tr><tr><td><div><table><tr><td><div>About</div></td></tr><tr><td><div>False</div></td></tr><tr><td><div>/admin/default/about/TutorPlus</div></td></tr></table></div></td></tr></table></div></td></tr></table></div></td></tr><tr><td><div><table><tr><td><div>web2py.com</div></td></tr><tr><td><div>False</div></td></tr><tr><td><div>#</div></td></tr><tr><td><div><table><tr><td><div><table><tr><td><div>Download</div></td></tr><tr><td><div>False</div></td></tr><tr><td><div>http://www.web2py.com/examples/default/download</div></td></tr></table></div></td></tr><tr><td><div><table><tr><td><div>Support</div></td></tr><tr><td><div>False</div></td></tr><tr><td><div>http://www.web2py.com/examples/default/support</div></td></tr></table></div></td></tr><tr><td><div><table><tr><td><div>Demo</div></td></tr><tr><td><div>False</div></td></tr><tr><td><div>http://web2py.com/demo_admin</div></td></tr></table></div></td></tr><tr><td><div><table><tr><td><div>Quick Examples</div></td></tr><tr><td><div>False</div></td></tr><tr><td><div>http://web2py.com/examples/default/examples</div></td></tr></table></div></td></tr><tr><td><div><table><tr><td><div>FAQ</div></td></tr><tr><td><div>False</div></td></tr><tr><td><div>http://web2py.com/AlterEgo</div></td></tr></table></div></td></tr><tr><td><div><table><tr><td><div>Videos</div></td></tr><tr><td><div>False</div></td></tr><tr><td><div>http://www.web2py.com/examples/default/videos/</div></td></tr></table></div></td></tr><tr><td><div><table><tr><td><div>Free Applications</div></td></tr><tr><td><div>False</div></td></tr><tr><td><div>http://web2py.com/appliances</div></td></tr></table></div></td></tr><tr><td><div><table><tr><td><div>Plugins</div></td></tr><tr><td><div>False</div></td></tr><tr><td><div>http://web2py.com/plugins</div></td></tr></table></div></td></tr><tr><td><div><table><tr><td><div>Recipes</div></td></tr><tr><td><div>False</div></td></tr><tr><td><div>http://web2pyslices.com/</div></td></tr></table></div></td></tr></table></div></td></tr></table></div></td></tr><tr><td><div><table><tr><td><div>Documentation</div></td></tr><tr><td><div>False</div></td></tr><tr><td><div>#</div></td></tr><tr><td><div><table><tr><td><div><table><tr><td><div>Online book</div></td></tr><tr><td><div>False</div></td></tr><tr><td><div>http://www.web2py.com/book</div></td></tr></table></div></td></tr><tr><td><div><table><tr><td><div>Preface</div></td></tr><tr><td><div>False</div></td></tr><tr><td><div>http://www.web2py.com/book/default/chapter/00</div></td></tr></table></div></td></tr><tr><td><div><table><tr><td><div>Introduction</div></td></tr><tr><td><div>False</div></td></tr><tr><td><div>http://www.web2py.com/book/default/chapter/01</div></td></tr></table></div></td></tr><tr><td><div><table><tr><td><div>Python</div></td></tr><tr><td><div>False</div></td></tr><tr><td><div>http://www.web2py.com/book/default/chapter/02</div></td></tr></table></div></td></tr><tr><td><div><table><tr><td><div>Overview</div></td></tr><tr><td><div>False</div></td></tr><tr><td><div>http://www.web2py.com/book/default/chapter/03</div></td></tr></table></div></td></tr><tr><td><div><table><tr><td><div>The Core</div></td></tr><tr><td><div>False</div></td></tr><tr><td><div>http://www.web2py.com/book/default/chapter/04</div></td></tr></table></div></td></tr><tr><td><div><table><tr><td><div>The Views</div></td></tr><tr><td><div>False</div></td></tr><tr><td><div>http://www.web2py.com/book/default/chapter/05</div></td></tr></table></div></td></tr><tr><td><div><table><tr><td><div>Database</div></td></tr><tr><td><div>False</div></td></tr><tr><td><div>http://www.web2py.com/book/default/chapter/06</div></td></tr></table></div></td></tr><tr><td><div><table><tr><td><div>Forms and Validators</div></td></tr><tr><td><div>False</div></td></tr><tr><td><div>http://www.web2py.com/book/default/chapter/07</div></td></tr></table></div></td></tr><tr><td><div><table><tr><td><div>Email and SMS</div></td></tr><tr><td><div>False</div></td></tr><tr><td><div>http://www.web2py.com/book/default/chapter/08</div></td></tr></table></div></td></tr><tr><td><div><table><tr><td><div>Access Control</div></td></tr><tr><td><div>False</div></td></tr><tr><td><div>http://www.web2py.com/book/default/chapter/09</div></td></tr></table></div></td></tr><tr><td><div><table><tr><td><div>Services</div></td></tr><tr><td><div>False</div></td></tr><tr><td><div>http://www.web2py.com/book/default/chapter/10</div></td></tr></table></div></td></tr><tr><td><div><table><tr><td><div>Ajax Recipes</div></td></tr><tr><td><div>False</div></td></tr><tr><td><div>http://www.web2py.com/book/default/chapter/11</div></td></tr></table></div></td></tr><tr><td><div><table><tr><td><div>Components and Plugins</div></td></tr><tr><td><div>False</div></td></tr><tr><td><div>http://www.web2py.com/book/default/chapter/12</div></td></tr></table></div></td></tr><tr><td><div><table><tr><td><div>Deployment Recipes</div></td></tr><tr><td><div>False</div></td></tr><tr><td><div>http://www.web2py.com/book/default/chapter/13</div></td></tr></table></div></td></tr><tr><td><div><table><tr><td><div>Other Recipes</div></td></tr><tr><td><div>False</div></td></tr><tr><td><div>http://www.web2py.com/book/default/chapter/14</div></td></tr></table></div></td></tr><tr><td><div><table><tr><td><div>Helping web2py</div></td></tr><tr><td><div>False</div></td></tr><tr><td><div>http://www.web2py.com/book/default/chapter/15</div></td></tr></table></div></td></tr><tr><td><div><table><tr><td><div>Buy web2py\'s book</div></td></tr><tr><td><div>False</div></td></tr><tr><td><div>http://stores.lulu.com/web2py</div></td></tr></table></div></td></tr></table></div></td></tr></table></div></td></tr><tr><td><div><table><tr><td><div>Community</div></td></tr><tr><td><div>False</div></td></tr><tr><td><div>None</div></td></tr><tr><td><div><table><tr><td><div><table><tr><td><div>Groups</div></td></tr><tr><td><div>False</div></td></tr><tr><td><div>http://www.web2py.com/examples/default/usergroups</div></td></tr></table></div></td></tr><tr><td><div><table><tr><td><div>Twitter</div></td></tr><tr><td><div>False</div></td></tr><tr><td><div>http://twitter.com/web2py</div></td></tr></table></div></td></tr><tr><td><div><table><tr><td><div>Live Chat</div></td></tr><tr><td><div>False</div></td></tr><tr><td><div>http://webchat.freenode.net/?channels=web2py</div></td></tr></table></div></td></tr></table></div></td></tr></table></div></td></tr></table></div></td></tr><tr><td style="font-weight:bold;vertical-align:top;">meta</td><td style="vertical-align:top;">:</td><td><div><table><tr><td style="font-weight:bold;vertical-align:top;">author</td><td style="vertical-align:top;">:</td><td><div>Your Name &lt;you@example.com&gt;</div></td></tr><tr><td style="font-weight:bold;vertical-align:top;">description</td><td style="vertical-align:top;">:</td><td><div>a cool new app</div></td></tr><tr><td style="font-weight:bold;vertical-align:top;">generator</td><td style="vertical-align:top;">:</td><td><div>Web2py Web Framework</div></td></tr><tr><td style="font-weight:bold;vertical-align:top;">keywords</td><td style="vertical-align:top;">:</td><td><div><table><tr><td><div>web2py</div></td></tr><tr><td><div>python</div></td></tr><tr><td><div>framework</div></td></tr></table></div></td></tr></table></div></td></tr><tr><td style="font-weight:bold;vertical-align:top;">models_to_run</td><td style="vertical-align:top;">:</td><td><div><table><tr><td><div>^\\w+\\.py$</div></td></tr><tr><td><div>^default/\\w+\\.py$</div></td></tr><tr><td><div>^default/index/\\w+\\.py$</div></td></tr></table></div></td></tr><tr><td style="font-weight:bold;vertical-align:top;">postprocessing</td><td style="vertical-align:top;">:</td><td><div><table></table></div></td></tr><tr><td style="font-weight:bold;vertical-align:top;">session_client</td><td style="vertical-align:top;">:</td><td><div>127.0.0.1</div></td></tr><tr><td style="font-weight:bold;vertical-align:top;">session_cookie_compression_level</td><td style="vertical-align:top;">:</td><td><div>None</div></td></tr><tr><td style="font-weight:bold;vertical-align:top;">session_cookie_expires</td><td style="vertical-align:top;">:</td><td><div>None</div></td></tr><tr><td style="font-weight:bold;vertical-align:top;">session_data_name</td><td style="vertical-align:top;">:</td><td><div>session_data_tutorplus</div></td></tr><tr><td style="font-weight:bold;vertical-align:top;">session_file</td><td style="vertical-align:top;">:</td><td><div>None</div></td></tr><tr><td style="font-weight:bold;vertical-align:top;">session_filename</td><td style="vertical-align:top;">:</td><td><div>C:\\Users\\zjylh\\Desktop\\TutorPlus-Web\\TutorPlusWeb\\web2py\\applications\\TutorPlus\\sessions\\127.0.0.1-b708be11-7e20-4ef7-b724-9626a90b5b20</div></td></tr><tr><td style="font-weight:bold;vertical-align:top;">session_hash</td><td style="vertical-align:top;">:</td><td><div>c0762cbf4baf7f9af97c051e7fcb8083</div></td></tr><tr><td style="font-weight:bold;vertical-align:top;">session_id</td><td style="vertical-align:top;">:</td><td><div>127.0.0.1-b708be11-7e20-4ef7-b724-9626a90b5b20</div></td></tr><tr><td style="font-weight:bold;vertical-align:top;">session_id_name</td><td style="vertical-align:top;">:</td><td><div>session_id_tutorplus</div></td></tr><tr><td style="font-weight:bold;vertical-align:top;">session_masterapp</td><td style="vertical-align:top;">:</td><td><div>TutorPlus</div></td></tr><tr><td style="font-weight:bold;vertical-align:top;">session_new</td><td style="vertical-align:top;">:</td><td><div>True</div></td></tr><tr><td style="font-weight:bold;vertical-align:top;">session_storage_type</td><td style="vertical-align:top;">:</td><td><div>file</div></td></tr><tr><td style="font-weight:bold;vertical-align:top;">show_toolbar</td><td style="vertical-align:top;">:</td><td><div>False</div></td></tr><tr><td style="font-weight:bold;vertical-align:top;">status</td><td style="vertical-align:top;">:</td><td><div>200</div></td></tr><tr><td style="font-weight:bold;vertical-align:top;">view</td><td style="vertical-align:top;">:</td><td><div>default/index.html</div></td></tr></table></div>'
tRp122
sS'locals'
p123
(dp124
S'USER_COLLECTION'
p125
S"'users'"
p126
sS'PY2'
p127
S'True'
p128
sS'OBJECT'
p129
S"<class 'gluon.html.OBJECT'>"
p130
sS'SQLDB'
p131
S"<class 'pydal.base.DAL'>"
p132
sg115
S'<Storage {}>'
p133
sS'LINK'
p134
S"<class 'gluon.html.LINK'>"
p135
sS'BR'
p136
S"<class 'gluon.html.BR'>"
p137
sS'local_import'
p138
S'<function <lambda>>'
p139
sS'OPTGROUP'
p140
S"<class 'gluon.html.OPTGROUP'>"
p141
sS'__package__'
p142
S'None'
p143
sS'PRE'
p144
S"<class 'gluon.html.PRE'>"
p145
sS'IS_INT_IN_RANGE'
p146
S"<class 'gluon.validators.IS_INT_IN_RANGE'>"
p147
sS'to_bytes'
p148
S'<function to_bytes>'
p149
sS'IS_LOWER'
p150
S"<class 'gluon.validators.IS_LOWER'>"
p151
sS'IS_STRONG'
p152
S"<class 'gluon.validators.IS_STRONG'>"
p153
sS'cache'
p154
S'<gluon.cache.Cache object>'
p155
sS'IS_IN_DB'
p156
S"<class 'gluon.validators.IS_IN_DB'>"
p157
sS'TAG'
p158
S'<gluon.html.__TAG__ object>'
p159
sS'SQLField'
p160
S"<class 'pydal.objects.Field'>"
p161
sS'BODY'
p162
S"<class 'gluon.html.BODY'>"
p163
sS'IS_DATE_IN_RANGE'
p164
S"<class 'gluon.validators.IS_DATE_IN_RANGE'>"
p165
sS'IFRAME'
p166
S"<class 'gluon.html.IFRAME'>"
p167
sS'URL'
p168
S'<function URL>'
p169
sS'__file__'
p170
S"r'C:\\Users\\zjylh\\Desktop\\TutorPlus-Web\\TutorPlusWe...y\\applications\\TutorPlus\\views\\default/index.html'"
p171
sS'db'
p172
S'<DAL uri="sqlite://storage.sqlite">'
p173
sS'firebase_admin'
p174
S"<module 'firebase_admin' from 'E:\\Anaconda\\lib\\site-packages\\firebase_admin\\__init__.pyc'>"
p175
sS'auth'
p176
S"<module 'firebase_admin.auth' from 'E:\\Anaconda\\lib\\site-packages\\firebase_admin\\auth.pyc'>"
p177
sS'P'
S"<class 'gluon.html.P'>"
p178
sS'T'
S'<gluon.languages.translator object>'
p179
sS'iteritems'
p180
S'<function <lambda>>'
p181
sS'credentials'
p182
S"<module 'firebase_admin.credentials' from 'E:\\An...ib\\site-packages\\firebase_admin\\credentials.pyc'>"
p183
sS'XHTML'
p184
S"<class 'gluon.html.XHTML'>"
p185
sS'STUDENT_COLLECTION'
p186
S"'students'"
p187
sS'ON'
p188
g128
sS'OL'
p189
S"<class 'gluon.html.OL'>"
p190
sS'TEXTAREA'
p191
S"<class 'gluon.html.TEXTAREA'>"
p192
sS'MENU'
p193
S"<class 'gluon.html.MENU'>"
p194
sS'CHANNEL_COLLECTION'
p195
S"'channel'"
p196
sS'UNIVERSITY_FIELD'
p197
S"'university'"
p198
sS'debug'
p199
S'<function debug>'
p200
sS'path'
p201
S"r'C:\\Users\\zjylh\\Desktop\\TutorPlus-Web\\TutorPlusWe...\\applications\\TutorPlus\\private\\tutorPlusKey.json'"
p202
sS'IMAGE_FOLDER'
p203
S"'images/'"
p204
sS'EM'
p205
S"<class 'gluon.html.EM'>"
p206
sS'NAME_FIELD'
p207
S"'name'"
p208
sS'CODE'
p209
S"<class 'gluon.html.CODE'>"
p210
sS'HTTP'
p211
S"<class 'gluon.http.HTTP'>"
p212
sS'HR'
p213
S"<class 'gluon.html.HR'>"
p214
sS'IS_DATETIME'
p215
S"<class 'gluon.validators.IS_DATETIME'>"
p216
sS'reduce'
p217
S'<built-in function reduce>'
p218
sS'STYLE'
p219
S"<class 'gluon.html.STYLE'>"
p220
sS'LABEL'
p221
S"<class 'gluon.html.LABEL'>"
p222
sS'CLEANUP'
p223
S"<class 'gluon.validators.CLEANUP'>"
p224
sS'TAG_FIELD'
p225
S"'tag'"
p226
sS'SELECT'
p227
S"<class 'gluon.html.SELECT'>"
p228
sS'COURSE_COLLECTION'
p229
S"'courses'"
p230
sS'CENTER'
p231
S"<class 'gluon.html.CENTER'>"
p232
sS'__builtins__'
p233
S"{'ArithmeticError': <type 'exceptions.ArithmeticError'>, 'AssertionError': <type 'exceptions.AssertionError'>, 'AttributeError': <type 'exceptions.AttributeError'>, 'BaseException': <type 'exceptions.BaseException'>, 'BufferError': <type 'exceptions.BufferError'>, 'BytesWarning': <type 'exceptions.BytesWarning'>, 'DeprecationWarning': <type 'exceptions.DeprecationWarning'>, 'EOFError': <type 'exceptions.EOFError'>, 'Ellipsis': Ellipsis, 'EnvironmentError': <type 'exceptions.EnvironmentError'>, ...}"
p234
sS'HTML'
p235
S"<class 'gluon.html.HTML'>"
p236
sS'SQLFORM'
p237
S"<class 'gluon.sqlhtml.SQLFORM'>"
p238
sS'LOAD'
p239
S'<function LOAD>'
p240
sS'redirect'
p241
S'<function redirect>'
p242
sS'FIELDSET'
p243
S"<class 'gluon.html.FIELDSET'>"
p244
sS'IS_EQUAL_TO'
p245
S"<class 'gluon.validators.IS_EQUAL_TO'>"
p246
sS'SCHOOL_COLLECTION'
p247
S"'schools'"
p248
sS'embed64'
p249
S'<function embed64>'
p250
sS'IS_LIST_OF'
p251
S"<class 'gluon.validators.IS_LIST_OF'>"
p252
sS'INPUT'
p253
S"<class 'gluon.html.INPUT'>"
p254
sS'EMBED'
p255
S"<class 'gluon.html.EMBED'>"
p256
sS'configuration'
p257
S"{'host': {'names': 'localhost:*, 127.0.0.1:*, *:...': 'sqlite://storage.sqlite', 'pool_size': '10'}}"
p258
sS'IS_IMAGE'
p259
S"<class 'gluon.validators.IS_IMAGE'>"
p260
sS'H2'
p261
S"<class 'gluon.html.H2'>"
p262
sS'H3'
p263
S"<class 'gluon.html.H3'>"
p264
sS'AppConfig'
p265
S'<function AppConfig>'
p266
sS'H1'
p267
S"<class 'gluon.html.H1'>"
p268
sS'H6'
p269
S"<class 'gluon.html.H6'>"
p270
sS'H4'
p271
S"<class 'gluon.html.H4'>"
p272
sS'H5'
p273
S"<class 'gluon.html.H5'>"
p274
sS'UL'
p275
S"<class 'gluon.html.UL'>"
p276
sS'IS_UPPER'
p277
S"<class 'gluon.validators.IS_UPPER'>"
p278
sS'xmlescape'
p279
S'<function xmlescape>'
p280
sS'IS_TIME'
p281
S"<class 'gluon.validators.IS_TIME'>"
p282
sS'os'
p283
S"<module 'os' from 'E:\\Anaconda\\lib\\os.pyc'>"
p284
sS'OPTION'
p285
S"<class 'gluon.html.OPTION'>"
p286
sS'TITLE'
p287
S"<class 'gluon.html.TITLE'>"
p288
sS'CRYPT'
p289
S"<class 'gluon.validators.CRYPT'>"
p290
sS'IS_EMPTY_OR'
p291
S"<class 'gluon.validators.IS_EMPTY_OR'>"
p292
sS'MARKMIN'
p293
S"<class 'gluon.html.MARKMIN'>"
p294
sS'__name__'
p295
S"'__restricted__'"
p296
sS'STRONG'
p297
S"<class 'gluon.html.STRONG'>"
p298
sS'COL'
p299
S"<class 'gluon.html.COL'>"
p300
sS'SCRIPT'
p301
S"<class 'gluon.html.SCRIPT'>"
p302
sS'TABLE'
p303
S"<class 'gluon.html.TABLE'>"
p304
sS'IS_IPV4'
p305
S"<class 'gluon.validators.IS_IPV4'>"
p306
sS'IS_LENGTH'
p307
S"<class 'gluon.validators.IS_LENGTH'>"
p308
sS'IS_IPV6'
p309
S"<class 'gluon.validators.IS_IPV6'>"
p310
sS'XML'
p311
S"<class 'gluon.html.XML'>"
p312
sS'COURSE_FIELD'
p313
S"'courses'"
p314
sS'B'
S"<class 'gluon.html.B'>"
p315
sS'IMG'
p316
S"<class 'gluon.html.IMG'>"
p317
sS'SQLTABLE'
p318
S"<class 'gluon.sqlhtml.SQLTABLE'>"
p319
sS'IS_MATCH'
p320
S"<class 'gluon.validators.IS_MATCH'>"
p321
sS'IS_ALPHANUMERIC'
p322
S"<class 'gluon.validators.IS_ALPHANUMERIC'>"
p323
sS'_app'
p324
S"'TutorPlus'"
p325
sS'SPAN'
p326
S"<class 'gluon.html.SPAN'>"
p327
sS'IS_JSON'
p328
S"<class 'gluon.validators.IS_JSON'>"
p329
sS'IS_IPADDRESS'
p330
S"<class 'gluon.validators.IS_IPADDRESS'>"
p331
sS'IS_SLUG'
p332
S"<class 'gluon.validators.IS_SLUG'>"
p333
sS'BEAUTIFY'
p334
S"<class 'gluon.html.BEAUTIFY'>"
p335
sS'META'
p336
S"<class 'gluon.html.META'>"
p337
sS'IMAGE_EXTENSION'
p338
S"'.png'"
p339
sS'TUTOR_COLLECTION'
p340
S"'tutors'"
p341
sS'BUTTON'
p342
S"<class 'gluon.html.BUTTON'>"
p343
sS'IS_DATE'
p344
S"<class 'gluon.validators.IS_DATE'>"
p345
sS'IS_EMAIL'
p346
S"<class 'gluon.validators.IS_EMAIL'>"
p347
sS'IS_NOT_EMPTY'
p348
S"<class 'gluon.validators.IS_NOT_EMPTY'>"
p349
sS'xrange'
p350
S"<type 'xrange'>"
p351
sS'TBODY'
p352
S"<class 'gluon.html.TBODY'>"
p353
sS'CAT'
p354
S"<class 'gluon.html.CAT'>"
p355
sS'Field'
p356
S"<class 'pydal.objects.Field'>"
p357
sS'IS_LIST_OF_EMAILS'
p358
S"<class 'gluon.validators.IS_LIST_OF_EMAILS'>"
p359
sg58
S"<Storage {'function': 'index', 'cookies': <Simpl...False, 'is_https': False, 'client': '127.0.0.1'}>"
p360
sS'DIV'
p361
S"<class 'gluon.html.DIV'>"
p362
sS'LEGEND'
p363
S"<class 'gluon.html.LEGEND'>"
p364
sS'to_native'
p365
S'<function to_native>'
p366
sS'COLGROUP'
p367
S"<class 'gluon.html.COLGROUP'>"
p368
sS'DAL'
p369
S"<class 'pydal.base.DAL'>"
p370
sS'TT'
p371
S"<class 'gluon.html.TT'>"
p372
sS'TR'
p373
S"<class 'gluon.html.TR'>"
p374
sS'CHAT_COLLECTION'
p375
S"'chats'"
p376
sS'LI'
p377
S"<class 'gluon.html.LI'>"
p378
sS'TH'
p379
S"<class 'gluon.html.TH'>"
p380
sS'TD'
p381
S"<class 'gluon.html.TD'>"
p382
sS'IS_URL'
p383
S"<class 'gluon.validators.IS_URL'>"
p384
sS'A'
S"<class 'gluon.html.A'>"
p385
sS'HEAD'
p386
S"<class 'gluon.html.HEAD'>"
p387
sS'IS_DATETIME_IN_RANGE'
p388
S"<class 'gluon.validators.IS_DATETIME_IN_RANGE'>"
p389
sS'FORM'
p390
S"<class 'gluon.html.FORM'>"
p391
sS'I'
S"<class 'gluon.html.I'>"
p392
sS'COUNT_FIELD'
p393
S"'count'"
p394
sS'IS_NOT_IN_DB'
p395
S"<class 'gluon.validators.IS_NOT_IN_DB'>"
p396
sg121
S"<Storage {'body': <cStringIO.StringO object at 0...00000000073E47B8>, 'view': 'default/index.html'}>"
p397
sS'THEAD'
p398
S"<class 'gluon.html.THEAD'>"
p399
sS'ANY_OF'
p400
S"<class 'gluon.validators.ANY_OF'>"
p401
sS'IS_NULL_OR'
p402
S"<class 'gluon.validators.IS_EMPTY_OR'>"
p403
sS'TFOOT'
p404
S"<class 'gluon.html.TFOOT'>"
p405
sS'IS_FLOAT_IN_RANGE'
p406
S"<class 'gluon.validators.IS_FLOAT_IN_RANGE'>"
p407
sS'IS_EXPR'
p408
S"<class 'gluon.validators.IS_EXPR'>"
p409
sS'UNREAD_COLLECTION'
p410
S"'unread'"
p411
sS'IS_IN_SET'
p412
S"<class 'gluon.validators.IS_IN_SET'>"
p413
sS'IS_UPLOAD_FILENAME'
p414
S"<class 'gluon.validators.IS_UPLOAD_FILENAME'>"
p415
sS'ASSIGNJS'
p416
S'<function ASSIGNJS>'
p417
sS'firestore'
p418
S"<module 'firebase_admin.firestore' from 'E:\\Anac...\\lib\\site-packages\\firebase_admin\\firestore.pyc'>"
p419
sS'IS_DECIMAL_IN_RANGE'
p420
S"<class 'gluon.validators.IS_DECIMAL_IN_RANGE'>"
p421
sssS'traceback'
p422
S'Traceback (most recent call last):\n  File "C:\\Users\\zjylh\\Desktop\\TutorPlus-Web\\TutorPlusWeb\\web2py\\gluon\\restricted.py", line 219, in restricted\n    exec(ccode, environment)\n  File "C:\\Users\\zjylh\\Desktop\\TutorPlus-Web\\TutorPlusWeb\\web2py\\applications\\TutorPlus\\views\\default/index.html", line 76, in <module>\nNameError: name \'get_profile_url\' is not defined\n'
p423
s.